ARM GAS  C:\Users\kotaro\AppData\Local\Temp\ccgFoOlP.s 			page 1


   1              		.cpu cortex-m4
   2              		.eabi_attribute 27, 1
   3              		.eabi_attribute 28, 1
   4              		.eabi_attribute 20, 1
   5              		.eabi_attribute 21, 1
   6              		.eabi_attribute 23, 3
   7              		.eabi_attribute 24, 1
   8              		.eabi_attribute 25, 1
   9              		.eabi_attribute 26, 1
  10              		.eabi_attribute 30, 1
  11              		.eabi_attribute 34, 1
  12              		.eabi_attribute 18, 4
  13              		.file	"calculate.c"
  14              		.text
  15              	.Ltext0:
  16              		.cfi_sections	.debug_frame
  17              		.section	.text.Straight_Calc_fb,"ax",%progbits
  18              		.align	1
  19              		.global	Straight_Calc_fb
  20              		.syntax unified
  21              		.thumb
  22              		.thumb_func
  23              		.fpu fpv4-sp-d16
  25              	Straight_Calc_fb:
  26              	.LFB0:
  27              		.file 1 "Src/calculate.c"
   1:Src/calculate.c **** #include "calculate.h"
   2:Src/calculate.c **** #include "global.h"
   3:Src/calculate.c **** #include "control.h"
   4:Src/calculate.c **** 
   5:Src/calculate.c **** 
   6:Src/calculate.c **** /****************************************************************************************
   7:Src/calculate.c ****  * outline  : calcurate accele distance
   8:Src/calculate.c ****  * argument : distance[mm],v_start[mm/s],v_end[mm/s]
   9:Src/calculate.c ****  * return   : void
  10:Src/calculate.c **** ********************************************************************************************/
  11:Src/calculate.c **** void Straight_Calc_fb(int16_t distant,int16_t v_start,int16_t v_end,uint16_t v_max,uint16_t accel){
  28              		.loc 1 11 0
  29              		.cfi_startproc
  30              		@ args = 4, pretend = 0, frame = 0
  31              		@ frame_needed = 0, uses_anonymous_args = 0
  32              	.LVL0:
  33 0000 2DE9F041 		push	{r4, r5, r6, r7, r8, lr}
  34              	.LCFI0:
  35              		.cfi_def_cfa_offset 24
  36              		.cfi_offset 4, -24
  37              		.cfi_offset 5, -20
  38              		.cfi_offset 6, -16
  39              		.cfi_offset 7, -12
  40              		.cfi_offset 8, -8
  41              		.cfi_offset 14, -4
  42 0004 0546     		mov	r5, r0
  43 0006 0C46     		mov	r4, r1
  44 0008 1646     		mov	r6, r2
  45 000a 1F46     		mov	r7, r3
  46 000c BDF81880 		ldrh	r8, [sp, #24]
  12:Src/calculate.c ****     float t1,t2,t3;
ARM GAS  C:\Users\kotaro\AppData\Local\Temp\ccgFoOlP.s 			page 2


  13:Src/calculate.c ****     float constant_L;
  14:Src/calculate.c **** 
  15:Src/calculate.c ****     Control_val_reset();
  47              		.loc 1 15 0
  48 0010 FFF7FEFF 		bl	Control_val_reset
  49              	.LVL1:
  16:Src/calculate.c **** 
  17:Src/calculate.c ****     straight_tgt.velocity = v_start;
  50              		.loc 1 17 0
  51 0014 344B     		ldr	r3, .L8
  52 0016 1C80     		strh	r4, [r3]	@ movhi
  18:Src/calculate.c ****     straight_tgt.accel = accel;
  53              		.loc 1 18 0
  54 0018 A3F80280 		strh	r8, [r3, #2]	@ movhi
  19:Src/calculate.c **** 
  20:Src/calculate.c ****     if(distant<0){
  55              		.loc 1 20 0
  56 001c 002D     		cmp	r5, #0
  57 001e 07DB     		blt	.L6
  21:Src/calculate.c ****         distant = -1*distant;
  22:Src/calculate.c ****         straight_tgt.dir=-1;
  23:Src/calculate.c ****     }else if(distant == 0){
  58              		.loc 1 23 0
  59 0020 002D     		cmp	r5, #0
  60 0022 5AD0     		beq	.L7
  24:Src/calculate.c ****         straight_tgt.dir=0;
  25:Src/calculate.c ****         accel = 1;
  26:Src/calculate.c ****         v_max = 1;
  27:Src/calculate.c ****     }else if(distant > 0){
  61              		.loc 1 27 0
  62 0024 002D     		cmp	r5, #0
  63 0026 07DD     		ble	.L3
  28:Src/calculate.c ****         straight_tgt.dir = 1;
  64              		.loc 1 28 0
  65 0028 2F4B     		ldr	r3, .L8
  66 002a 0122     		movs	r2, #1
  67 002c 1A71     		strb	r2, [r3, #4]
  68 002e 03E0     		b	.L3
  69              	.L6:
  21:Src/calculate.c ****         distant = -1*distant;
  70              		.loc 1 21 0
  71 0030 6D42     		negs	r5, r5
  72 0032 2DB2     		sxth	r5, r5
  73              	.LVL2:
  22:Src/calculate.c ****     }else if(distant == 0){
  74              		.loc 1 22 0
  75 0034 FF22     		movs	r2, #255
  76 0036 1A71     		strb	r2, [r3, #4]
  77              	.LVL3:
  78              	.L3:
  29:Src/calculate.c ****     }
  30:Src/calculate.c **** 
  31:Src/calculate.c ****     t1 = (float)(v_max - v_start) / accel;
  79              		.loc 1 31 0
  80 0038 3B1B     		subs	r3, r7, r4
  81 003a 07EE103A 		vmov	s14, r3	@ int
  82 003e B8EEC77A 		vcvt.f32.s32	s14, s14
ARM GAS  C:\Users\kotaro\AppData\Local\Temp\ccgFoOlP.s 			page 3


  83 0042 07EE908A 		vmov	s15, r8	@ int
  84 0046 F8EEE77A 		vcvt.f32.s32	s15, s15
  85 004a 87EE276A 		vdiv.f32	s12, s14, s15
  86              	.LVL4:
  32:Src/calculate.c ****     t3 = (float)(v_max - v_end) / accel;
  87              		.loc 1 32 0
  88 004e BB1B     		subs	r3, r7, r6
  89 0050 07EE103A 		vmov	s14, r3	@ int
  90 0054 B8EEC77A 		vcvt.f32.s32	s14, s14
  91 0058 C7EE276A 		vdiv.f32	s13, s14, s15
  92              	.LVL5:
  33:Src/calculate.c **** 
  34:Src/calculate.c ****     constant_L = (float)distant - (v_max + v_start) * t1 / 2 - (v_max + v_end) * t3 / 2;
  93              		.loc 1 34 0
  94 005c 07EE905A 		vmov	s15, r5	@ int
  95 0060 B8EEE77A 		vcvt.f32.s32	s14, s15
  96 0064 3B19     		adds	r3, r7, r4
  97 0066 07EE903A 		vmov	s15, r3	@ int
  98 006a F8EEE77A 		vcvt.f32.s32	s15, s15
  99 006e 67EE867A 		vmul.f32	s15, s15, s12
 100 0072 F6EE005A 		vmov.f32	s11, #5.0e-1
 101 0076 67EEA57A 		vmul.f32	s15, s15, s11
 102 007a 77EE677A 		vsub.f32	s15, s14, s15
 103 007e BB19     		adds	r3, r7, r6
 104 0080 07EE103A 		vmov	s14, r3	@ int
 105 0084 B8EEC77A 		vcvt.f32.s32	s14, s14
 106 0088 27EE267A 		vmul.f32	s14, s14, s13
 107 008c 27EE257A 		vmul.f32	s14, s14, s11
 108 0090 37EEC77A 		vsub.f32	s14, s15, s14
 109              	.LVL6:
  35:Src/calculate.c **** 
  36:Src/calculate.c ****     t2 = constant_L / v_max;
 110              		.loc 1 36 0
 111 0094 07EE907A 		vmov	s15, r7	@ int
 112 0098 F8EEE77A 		vcvt.f32.s32	s15, s15
 113 009c C7EE275A 		vdiv.f32	s11, s14, s15
 114              	.LVL7:
  37:Src/calculate.c **** 
  38:Src/calculate.c ****     t1 *= 1000;
 115              		.loc 1 38 0
 116 00a0 9FED127A 		vldr.32	s14, .L8+4
 117              	.LVL8:
 118 00a4 26EE076A 		vmul.f32	s12, s12, s14
 119              	.LVL9:
  39:Src/calculate.c ****     t2 *= 1000;
 120              		.loc 1 39 0
 121 00a8 65EE877A 		vmul.f32	s15, s11, s14
 122              	.LVL10:
  40:Src/calculate.c ****     t3 *= 1000;
 123              		.loc 1 40 0
 124 00ac 66EE876A 		vmul.f32	s13, s13, s14
 125              	.LVL11:
  41:Src/calculate.c **** 
  42:Src/calculate.c ****     straight_tim.up = t1;
 126              		.loc 1 42 0
 127 00b0 0F4B     		ldr	r3, .L8+8
 128              	.LVL12:
ARM GAS  C:\Users\kotaro\AppData\Local\Temp\ccgFoOlP.s 			page 4


 129 00b2 BCEEC66A 		vcvt.u32.f32	s12, s12
 130              	.LVL13:
 131 00b6 16EE102A 		vmov	r2, s12	@ int
 132 00ba 1A80     		strh	r2, [r3]	@ movhi
  43:Src/calculate.c ****     straight_tim.cons = t2;
 133              		.loc 1 43 0
 134 00bc FCEEE77A 		vcvt.u32.f32	s15, s15
 135              	.LVL14:
 136 00c0 17EE902A 		vmov	r2, s15	@ int
 137 00c4 5A80     		strh	r2, [r3, #2]	@ movhi
  44:Src/calculate.c ****     straight_tim.down = t3;
 138              		.loc 1 44 0
 139 00c6 FCEEE66A 		vcvt.u32.f32	s13, s13
 140              	.LVL15:
 141 00ca 16EE902A 		vmov	r2, s13	@ int
 142 00ce 9A80     		strh	r2, [r3, #4]	@ movhi
  45:Src/calculate.c **** 
  46:Src/calculate.c ****     flag.motion_end = FALSE;
 143              		.loc 1 46 0
 144 00d0 084B     		ldr	r3, .L8+12
 145 00d2 0022     		movs	r2, #0
 146 00d4 9A70     		strb	r2, [r3, #2]
  47:Src/calculate.c **** 
  48:Src/calculate.c ****     //printf("%d %d %d\r\n",accel_T,constant_T,decrease_T);
  49:Src/calculate.c **** }
 147              		.loc 1 49 0
 148 00d6 BDE8F081 		pop	{r4, r5, r6, r7, r8, pc}
 149              	.LVL16:
 150              	.L7:
  24:Src/calculate.c ****         accel = 1;
 151              		.loc 1 24 0
 152 00da 034B     		ldr	r3, .L8
 153 00dc 0022     		movs	r2, #0
 154 00de 1A71     		strb	r2, [r3, #4]
 155              	.LVL17:
  25:Src/calculate.c ****         v_max = 1;
 156              		.loc 1 25 0
 157 00e0 4FF00108 		mov	r8, #1
  26:Src/calculate.c ****     }else if(distant > 0){
 158              		.loc 1 26 0
 159 00e4 4746     		mov	r7, r8
 160 00e6 A7E7     		b	.L3
 161              	.L9:
 162              		.align	2
 163              	.L8:
 164 00e8 00000000 		.word	straight_tgt
 165 00ec 00007A44 		.word	1148846080
 166 00f0 00000000 		.word	straight_tim
 167 00f4 00000000 		.word	flag
 168              		.cfi_endproc
 169              	.LFE0:
 171              		.section	.text.Yawrate_Calc_fb,"ax",%progbits
 172              		.align	1
 173              		.global	Yawrate_Calc_fb
 174              		.syntax unified
 175              		.thumb
 176              		.thumb_func
ARM GAS  C:\Users\kotaro\AppData\Local\Temp\ccgFoOlP.s 			page 5


 177              		.fpu fpv4-sp-d16
 179              	Yawrate_Calc_fb:
 180              	.LFB1:
  50:Src/calculate.c **** 
  51:Src/calculate.c **** 
  52:Src/calculate.c **** /****************************************************************************************
  53:Src/calculate.c ****  * outline  : calcurate trapezoid accel
  54:Src/calculate.c ****  * argument : degree[degree],v_start[degree/s],v_end[degree/s]
  55:Src/calculate.c ****  * return   : void
  56:Src/calculate.c **** ********************************************************************************************/
  57:Src/calculate.c **** void Yawrate_Calc_fb(int16_t degree,int16_t v_start,int16_t v_end,int16_t v_max,int16_t accel){
 181              		.loc 1 57 0
 182              		.cfi_startproc
 183              		@ args = 4, pretend = 0, frame = 0
 184              		@ frame_needed = 0, uses_anonymous_args = 0
 185              	.LVL18:
 186 0000 2DE9F041 		push	{r4, r5, r6, r7, r8, lr}
 187              	.LCFI1:
 188              		.cfi_def_cfa_offset 24
 189              		.cfi_offset 4, -24
 190              		.cfi_offset 5, -20
 191              		.cfi_offset 6, -16
 192              		.cfi_offset 7, -12
 193              		.cfi_offset 8, -8
 194              		.cfi_offset 14, -4
 195 0004 0546     		mov	r5, r0
 196 0006 0C46     		mov	r4, r1
 197 0008 1646     		mov	r6, r2
 198 000a 1F46     		mov	r7, r3
 199 000c BDF91880 		ldrsh	r8, [sp, #24]
 200              	.LVL19:
  58:Src/calculate.c ****     float t1=0,t2=0,t3=0;
  59:Src/calculate.c ****     float constant_L;
  60:Src/calculate.c **** 
  61:Src/calculate.c ****     Control_val_reset();
 201              		.loc 1 61 0
 202 0010 FFF7FEFF 		bl	Control_val_reset
 203              	.LVL20:
  62:Src/calculate.c **** 
  63:Src/calculate.c ****     yawrate_tgt.velocity = v_start;
 204              		.loc 1 63 0
 205 0014 344B     		ldr	r3, .L17
 206 0016 1C80     		strh	r4, [r3]	@ movhi
  64:Src/calculate.c ****     yawrate_tgt.accel = accel;
 207              		.loc 1 64 0
 208 0018 A3F80280 		strh	r8, [r3, #2]	@ movhi
  65:Src/calculate.c **** 
  66:Src/calculate.c ****     if(degree<0){
 209              		.loc 1 66 0
 210 001c 002D     		cmp	r5, #0
 211 001e 07DB     		blt	.L15
  67:Src/calculate.c ****         degree = -1*degree;
  68:Src/calculate.c ****         yawrate_tgt.dir = -1;
  69:Src/calculate.c ****     }else if(degree == 0){
 212              		.loc 1 69 0
 213 0020 002D     		cmp	r5, #0
 214 0022 5AD0     		beq	.L16
ARM GAS  C:\Users\kotaro\AppData\Local\Temp\ccgFoOlP.s 			page 6


  70:Src/calculate.c ****         yawrate_tgt.dir = 0;
  71:Src/calculate.c ****         accel = 1;
  72:Src/calculate.c ****         v_max = 1;
  73:Src/calculate.c ****     }else if(degree > 0){
 215              		.loc 1 73 0
 216 0024 002D     		cmp	r5, #0
 217 0026 07DD     		ble	.L12
  74:Src/calculate.c ****         yawrate_tgt.dir = 1; 
 218              		.loc 1 74 0
 219 0028 2F4B     		ldr	r3, .L17
 220 002a 0122     		movs	r2, #1
 221 002c 1A71     		strb	r2, [r3, #4]
 222 002e 03E0     		b	.L12
 223              	.L15:
  67:Src/calculate.c ****         degree = -1*degree;
 224              		.loc 1 67 0
 225 0030 6D42     		negs	r5, r5
 226 0032 2DB2     		sxth	r5, r5
 227              	.LVL21:
  68:Src/calculate.c ****     }else if(degree == 0){
 228              		.loc 1 68 0
 229 0034 FF22     		movs	r2, #255
 230 0036 1A71     		strb	r2, [r3, #4]
 231              	.LVL22:
 232              	.L12:
  75:Src/calculate.c ****     }
  76:Src/calculate.c **** 
  77:Src/calculate.c ****     t1 = (float)(v_max - v_start) / accel;
 233              		.loc 1 77 0
 234 0038 3B1B     		subs	r3, r7, r4
 235 003a 07EE103A 		vmov	s14, r3	@ int
 236 003e B8EEC77A 		vcvt.f32.s32	s14, s14
 237 0042 07EE908A 		vmov	s15, r8	@ int
 238 0046 F8EEE77A 		vcvt.f32.s32	s15, s15
 239 004a 87EE276A 		vdiv.f32	s12, s14, s15
 240              	.LVL23:
  78:Src/calculate.c ****     t3 = (float)(v_max - v_end) / accel;
 241              		.loc 1 78 0
 242 004e BB1B     		subs	r3, r7, r6
 243 0050 07EE103A 		vmov	s14, r3	@ int
 244 0054 B8EEC77A 		vcvt.f32.s32	s14, s14
 245 0058 C7EE276A 		vdiv.f32	s13, s14, s15
 246              	.LVL24:
  79:Src/calculate.c **** 
  80:Src/calculate.c ****     constant_L = (float)degree - (v_max + v_start) * t1 / 2 - (v_max + v_end) * t3 / 2;
 247              		.loc 1 80 0
 248 005c 07EE905A 		vmov	s15, r5	@ int
 249 0060 B8EEE77A 		vcvt.f32.s32	s14, s15
 250 0064 3B19     		adds	r3, r7, r4
 251 0066 07EE903A 		vmov	s15, r3	@ int
 252 006a F8EEE77A 		vcvt.f32.s32	s15, s15
 253 006e 67EE867A 		vmul.f32	s15, s15, s12
 254 0072 F6EE005A 		vmov.f32	s11, #5.0e-1
 255 0076 67EEA57A 		vmul.f32	s15, s15, s11
 256 007a 77EE677A 		vsub.f32	s15, s14, s15
 257 007e BB19     		adds	r3, r7, r6
 258 0080 07EE103A 		vmov	s14, r3	@ int
ARM GAS  C:\Users\kotaro\AppData\Local\Temp\ccgFoOlP.s 			page 7


 259 0084 B8EEC77A 		vcvt.f32.s32	s14, s14
 260 0088 27EE267A 		vmul.f32	s14, s14, s13
 261 008c 27EE257A 		vmul.f32	s14, s14, s11
 262 0090 37EEC77A 		vsub.f32	s14, s15, s14
 263              	.LVL25:
  81:Src/calculate.c ****     
  82:Src/calculate.c ****     t2 = constant_L / v_max;
 264              		.loc 1 82 0
 265 0094 07EE907A 		vmov	s15, r7	@ int
 266 0098 F8EEE77A 		vcvt.f32.s32	s15, s15
 267 009c C7EE275A 		vdiv.f32	s11, s14, s15
 268              	.LVL26:
  83:Src/calculate.c **** 
  84:Src/calculate.c ****     t1 *= 1000;
 269              		.loc 1 84 0
 270 00a0 9FED127A 		vldr.32	s14, .L17+4
 271              	.LVL27:
 272 00a4 26EE076A 		vmul.f32	s12, s12, s14
 273              	.LVL28:
  85:Src/calculate.c ****     t2 *= 1000;
 274              		.loc 1 85 0
 275 00a8 65EE877A 		vmul.f32	s15, s11, s14
 276              	.LVL29:
  86:Src/calculate.c ****     t3 *= 1000;
 277              		.loc 1 86 0
 278 00ac 66EE876A 		vmul.f32	s13, s13, s14
 279              	.LVL30:
  87:Src/calculate.c **** 
  88:Src/calculate.c ****     yawrate_tim.up = t1;
 280              		.loc 1 88 0
 281 00b0 0F4B     		ldr	r3, .L17+8
 282              	.LVL31:
 283 00b2 BCEEC66A 		vcvt.u32.f32	s12, s12
 284              	.LVL32:
 285 00b6 16EE102A 		vmov	r2, s12	@ int
 286 00ba 1A80     		strh	r2, [r3]	@ movhi
  89:Src/calculate.c ****     yawrate_tim.cons = t2;
 287              		.loc 1 89 0
 288 00bc FCEEE77A 		vcvt.u32.f32	s15, s15
 289              	.LVL33:
 290 00c0 17EE902A 		vmov	r2, s15	@ int
 291 00c4 5A80     		strh	r2, [r3, #2]	@ movhi
  90:Src/calculate.c ****     yawrate_tim.down = t3;
 292              		.loc 1 90 0
 293 00c6 FCEEE66A 		vcvt.u32.f32	s13, s13
 294              	.LVL34:
 295 00ca 16EE902A 		vmov	r2, s13	@ int
 296 00ce 9A80     		strh	r2, [r3, #4]	@ movhi
  91:Src/calculate.c **** 
  92:Src/calculate.c ****     flag.motion_end = FALSE;
 297              		.loc 1 92 0
 298 00d0 084B     		ldr	r3, .L17+12
 299 00d2 0022     		movs	r2, #0
 300 00d4 9A70     		strb	r2, [r3, #2]
  93:Src/calculate.c **** }...
 301              		.loc 1 93 0
 302 00d6 BDE8F081 		pop	{r4, r5, r6, r7, r8, pc}
ARM GAS  C:\Users\kotaro\AppData\Local\Temp\ccgFoOlP.s 			page 8


 303              	.LVL35:
 304              	.L16:
  70:Src/calculate.c ****         yawrate_tgt.dir = 0;
 305              		.loc 1 70 0
 306 00da 034B     		ldr	r3, .L17
 307 00dc 0022     		movs	r2, #0
 308 00de 1A71     		strb	r2, [r3, #4]
 309              	.LVL36:
  71:Src/calculate.c ****         accel = 1;
 310              		.loc 1 71 0
 311 00e0 4FF00108 		mov	r8, #1
  72:Src/calculate.c ****         v_max = 1;
 312              		.loc 1 72 0
 313 00e4 4746     		mov	r7, r8
 314 00e6 A7E7     		b	.L12
 315              	.L18:
 316              		.align	2
 317              	.L17:
 318 00e8 00000000 		.word	yawrate_tgt
 319 00ec 00007A44 		.word	1148846080
 320 00f0 00000000 		.word	yawrate_tim
 321 00f4 00000000 		.word	flag
 322              		.cfi_endproc
 323              	.LFE1:
 325              		.text
 326              	.Letext0:
 327              		.file 2 "c:\\program files (x86)\\gnu tools arm embedded\\7 2017-q4-major\\arm-none-eabi\\include\
 328              		.file 3 "c:\\program files (x86)\\gnu tools arm embedded\\7 2017-q4-major\\arm-none-eabi\\include\
 329              		.file 4 "Inc/global.h"
 330              		.file 5 "Inc/control.h"
ARM GAS  C:\Users\kotaro\AppData\Local\Temp\ccgFoOlP.s 			page 9

