ARM GAS  C:\Users\kotaro\AppData\Local\Temp\cc3sl2pj.s 			page 1


   1              		.cpu cortex-m4
   2              		.eabi_attribute 27, 1
   3              		.eabi_attribute 28, 1
   4              		.eabi_attribute 20, 1
   5              		.eabi_attribute 21, 1
   6              		.eabi_attribute 23, 3
   7              		.eabi_attribute 24, 1
   8              		.eabi_attribute 25, 1
   9              		.eabi_attribute 26, 1
  10              		.eabi_attribute 30, 1
  11              		.eabi_attribute 34, 1
  12              		.eabi_attribute 18, 4
  13              		.file	"control.c"
  14              		.text
  15              	.Ltext0:
  16              		.cfi_sections	.debug_frame
  17              		.section	.text.PID_value,"ax",%progbits
  18              		.align	1
  19              		.global	PID_value
  20              		.syntax unified
  21              		.thumb
  22              		.thumb_func
  23              		.fpu fpv4-sp-d16
  25              	PID_value:
  26              	.LFB126:
  27              		.file 1 "Src/control.c"
   1:Src/control.c **** #include "control.h"
   2:Src/control.c **** #include "global.h"
   3:Src/control.c **** #include "tim.h"
   4:Src/control.c **** //#include "stdint.h"
   5:Src/control.c **** 
   6:Src/control.c **** int16_t straight_pid_l = 0;
   7:Src/control.c **** float s_sum_l = 0;
   8:Src/control.c **** float s_before_l = 0;
   9:Src/control.c **** 
  10:Src/control.c **** int16_t straight_pid_r = 0;
  11:Src/control.c **** float s_sum_r = 0;
  12:Src/control.c **** float s_before_r = 0;
  13:Src/control.c **** 
  14:Src/control.c **** int16_t yawrate_pid = 0;
  15:Src/control.c **** float y_sum = 0;
  16:Src/control.c **** float y_before = 0;
  17:Src/control.c **** 
  18:Src/control.c **** 
  19:Src/control.c **** 
  20:Src/control.c **** 
  21:Src/control.c **** /****************************************************************************************
  22:Src/control.c ****  * outline  : PID control
  23:Src/control.c ****  * argument : 
  24:Src/control.c ****  * return   : control value
  25:Src/control.c **** ********************************************************************************************/
  26:Src/control.c **** float PID_value(float target,float measured,float *sum,float *old,float Kp,float Ki,float Kd){
  28              		.loc 1 26 0
  29              		.cfi_startproc
  30              		@ args = 0, pretend = 0, frame = 0
  31              		@ frame_needed = 0, uses_anonymous_args = 0
  32              		@ link register save eliminated.
ARM GAS  C:\Users\kotaro\AppData\Local\Temp\cc3sl2pj.s 			page 2


  33              	.LVL0:
  27:Src/control.c ****     float error;
  28:Src/control.c ****     float p,i,d;
  29:Src/control.c **** 
  30:Src/control.c ****     error = target - measured;
  34              		.loc 1 30 0
  35 0000 70EE600A 		vsub.f32	s1, s0, s1
  36              	.LVL1:
  31:Src/control.c ****     p = Kp*error;
  37              		.loc 1 31 0
  38 0004 20EE811A 		vmul.f32	s2, s1, s2
  39              	.LVL2:
  32:Src/control.c **** 
  33:Src/control.c ****     *sum += error * dt;
  40              		.loc 1 33 0
  41 0008 DFED0C7A 		vldr.32	s15, .L2
  42 000c 60EEA77A 		vmul.f32	s15, s1, s15
  43 0010 90ED000A 		vldr.32	s0, [r0]
  44              	.LVL3:
  45 0014 77EE807A 		vadd.f32	s15, s15, s0
  46 0018 C0ED007A 		vstr.32	s15, [r0]
  34:Src/control.c ****     i = *sum * Ki;
  47              		.loc 1 34 0
  48 001c 67EEA11A 		vmul.f32	s3, s15, s3
  49              	.LVL4:
  35:Src/control.c **** 
  36:Src/control.c ****     d = Kd * (error - *old);
  50              		.loc 1 36 0
  51 0020 91ED007A 		vldr.32	s14, [r1]
  52 0024 30EEC77A 		vsub.f32	s14, s1, s14
  53 0028 27EE022A 		vmul.f32	s4, s14, s4
  54              	.LVL5:
  37:Src/control.c ****     *old = error;
  55              		.loc 1 37 0
  56 002c C1ED000A 		vstr.32	s1, [r1]
  38:Src/control.c **** 
  39:Src/control.c ****     return (p+i+d);
  57              		.loc 1 39 0
  58 0030 71EE211A 		vadd.f32	s3, s2, s3
  59              	.LVL6:
  40:Src/control.c **** }
  60              		.loc 1 40 0
  61 0034 31EE820A 		vadd.f32	s0, s3, s4
  62 0038 7047     		bx	lr
  63              	.L3:
  64 003a 00BF     		.align	2
  65              	.L2:
  66 003c 6F12833A 		.word	981668463
  67              		.cfi_endproc
  68              	.LFE126:
  70              		.section	.text.Straight_SysTic_fb,"ax",%progbits
  71              		.align	1
  72              		.global	Straight_SysTic_fb
  73              		.syntax unified
  74              		.thumb
  75              		.thumb_func
  76              		.fpu fpv4-sp-d16
ARM GAS  C:\Users\kotaro\AppData\Local\Temp\cc3sl2pj.s 			page 3


  78              	Straight_SysTic_fb:
  79              	.LFB127:
  41:Src/control.c **** 
  42:Src/control.c **** /****************************************************************************************
  43:Src/control.c ****  * outline  : output pwm for trapezoid accele straight by feadbuck control
  44:Src/control.c ****  * argument : void
  45:Src/control.c ****  * return   : void
  46:Src/control.c **** ********************************************************************************************/
  47:Src/control.c **** void Straight_SysTic_fb(void){
  80              		.loc 1 47 0
  81              		.cfi_startproc
  82              		@ args = 0, pretend = 0, frame = 0
  83              		@ frame_needed = 0, uses_anonymous_args = 0
  84 0000 08B5     		push	{r3, lr}
  85              	.LCFI0:
  86              		.cfi_def_cfa_offset 8
  87              		.cfi_offset 3, -8
  88              		.cfi_offset 14, -4
  89 0002 2DED028B 		vpush.64	{d8}
  90              	.LCFI1:
  91              		.cfi_def_cfa_offset 16
  92              		.cfi_offset 80, -16
  93              		.cfi_offset 81, -12
  94              	.LVL7:
  48:Src/control.c ****     float target = 1;
  49:Src/control.c ****     if(straight_tim.up > 0){
  95              		.loc 1 49 0
  96 0006 424B     		ldr	r3, .L13
  97 0008 1B88     		ldrh	r3, [r3]
  98 000a 5BB9     		cbnz	r3, .L10
  50:Src/control.c ****         straight_tgt.velocity += straight_tgt.accel * dt;
  51:Src/control.c ****         straight_tim.up --;
  52:Src/control.c ****     }
  53:Src/control.c ****     else if(straight_tim.cons > 0){
  99              		.loc 1 53 0
 100 000c 404B     		ldr	r3, .L13
 101 000e 5B88     		ldrh	r3, [r3, #2]
 102 0010 002B     		cmp	r3, #0
 103 0012 5CD1     		bne	.L11
  54:Src/control.c ****         straight_tim.cons --;
  55:Src/control.c ****     }
  56:Src/control.c ****     else if(straight_tim.down > 0){
 104              		.loc 1 56 0
 105 0014 3E4B     		ldr	r3, .L13
 106 0016 9B88     		ldrh	r3, [r3, #4]
 107 0018 002B     		cmp	r3, #0
 108 001a 5CD1     		bne	.L12
  57:Src/control.c ****         straight_tgt.velocity -= straight_tgt.accel * dt;
  58:Src/control.c ****         straight_tim.down --;
  59:Src/control.c ****     }else{
  60:Src/control.c ****         flag.straight = OFF;
 109              		.loc 1 60 0
 110 001c 3D4B     		ldr	r3, .L13+4
 111 001e 0022     		movs	r2, #0
 112 0020 9A70     		strb	r2, [r3, #2]
 113 0022 1AE0     		b	.L6
 114              	.L10:
ARM GAS  C:\Users\kotaro\AppData\Local\Temp\cc3sl2pj.s 			page 4


  50:Src/control.c ****         straight_tim.up --;
 115              		.loc 1 50 0
 116 0024 3C4A     		ldr	r2, .L13+8
 117 0026 B2F90210 		ldrsh	r1, [r2, #2]
 118 002a 07EE901A 		vmov	s15, r1	@ int
 119 002e F8EEE77A 		vcvt.f32.s32	s15, s15
 120 0032 9FED3A7A 		vldr.32	s14, .L13+12
 121 0036 27EE877A 		vmul.f32	s14, s15, s14
 122 003a B2F90010 		ldrsh	r1, [r2]
 123 003e 07EE901A 		vmov	s15, r1	@ int
 124 0042 F8EEE77A 		vcvt.f32.s32	s15, s15
 125 0046 77EE877A 		vadd.f32	s15, s15, s14
 126 004a FDEEE77A 		vcvt.s32.f32	s15, s15
 127 004e 17EE901A 		vmov	r1, s15	@ int
 128 0052 1180     		strh	r1, [r2]	@ movhi
  51:Src/control.c ****     }
 129              		.loc 1 51 0
 130 0054 013B     		subs	r3, r3, #1
 131 0056 2E4A     		ldr	r2, .L13
 132 0058 1380     		strh	r3, [r2]	@ movhi
 133              	.L6:
  61:Src/control.c ****     }
  62:Src/control.c **** 
  63:Src/control.c ****     target = straight_tgt.dir * straight_tgt.velocity;
 134              		.loc 1 63 0
 135 005a 2F4A     		ldr	r2, .L13+8
 136 005c 92F90410 		ldrsb	r1, [r2, #4]
 137 0060 B2F90030 		ldrsh	r3, [r2]
 138 0064 03FB01F3 		mul	r3, r3, r1
 139 0068 07EE903A 		vmov	s15, r3	@ int
 140 006c B8EEE78A 		vcvt.f32.s32	s16, s15
 141              	.LVL8:
  64:Src/control.c ****     
  65:Src/control.c ****     straight_pid_l = (int16_t)PID_value(target,enc_l.velocity,&s_sum_l,&s_before_l,4.0f,10.0f,0);
 142              		.loc 1 65 0
 143 0070 DFED2B8A 		vldr.32	s17, .L13+16
 144 0074 B0EE682A 		vmov.f32	s4, s17
 145 0078 F2EE041A 		vmov.f32	s3, #1.0e+1
 146 007c B1EE001A 		vmov.f32	s2, #4.0e+0
 147 0080 2849     		ldr	r1, .L13+20
 148 0082 2948     		ldr	r0, .L13+24
 149 0084 294B     		ldr	r3, .L13+28
 150 0086 D3ED010A 		vldr.32	s1, [r3, #4]
 151 008a B0EE480A 		vmov.f32	s0, s16
 152 008e FFF7FEFF 		bl	PID_value
 153              	.LVL9:
 154 0092 BDEEC00A 		vcvt.s32.f32	s0, s0
 155 0096 264B     		ldr	r3, .L13+32
 156 0098 10EE102A 		vmov	r2, s0	@ int
 157 009c 1A80     		strh	r2, [r3]	@ movhi
  66:Src/control.c ****     straight_pid_r = (int16_t)PID_value(target,enc_r.velocity,&s_sum_r,&s_before_r,4.0f,10.0f,0);
 158              		.loc 1 66 0
 159 009e B0EE682A 		vmov.f32	s4, s17
 160 00a2 F2EE041A 		vmov.f32	s3, #1.0e+1
 161 00a6 B1EE001A 		vmov.f32	s2, #4.0e+0
 162 00aa 2249     		ldr	r1, .L13+36
 163 00ac 2248     		ldr	r0, .L13+40
ARM GAS  C:\Users\kotaro\AppData\Local\Temp\cc3sl2pj.s 			page 5


 164 00ae 234B     		ldr	r3, .L13+44
 165 00b0 D3ED010A 		vldr.32	s1, [r3, #4]
 166 00b4 B0EE480A 		vmov.f32	s0, s16
 167 00b8 FFF7FEFF 		bl	PID_value
 168              	.LVL10:
 169 00bc BDEEC00A 		vcvt.s32.f32	s0, s0
 170 00c0 1F4B     		ldr	r3, .L13+48
 171 00c2 10EE102A 		vmov	r2, s0	@ int
 172 00c6 1A80     		strh	r2, [r3]	@ movhi
  67:Src/control.c **** }
 173              		.loc 1 67 0
 174 00c8 BDEC028B 		vldm	sp!, {d8}
 175              	.LCFI2:
 176              		.cfi_remember_state
 177              		.cfi_restore 80
 178              		.cfi_restore 81
 179              		.cfi_def_cfa_offset 8
 180              	.LVL11:
 181 00cc 08BD     		pop	{r3, pc}
 182              	.LVL12:
 183              	.L11:
 184              	.LCFI3:
 185              		.cfi_restore_state
  54:Src/control.c ****     }
 186              		.loc 1 54 0
 187 00ce 013B     		subs	r3, r3, #1
 188 00d0 0F4A     		ldr	r2, .L13
 189 00d2 5380     		strh	r3, [r2, #2]	@ movhi
 190 00d4 C1E7     		b	.L6
 191              	.L12:
  57:Src/control.c ****         straight_tim.down --;
 192              		.loc 1 57 0
 193 00d6 104A     		ldr	r2, .L13+8
 194 00d8 B2F90210 		ldrsh	r1, [r2, #2]
 195 00dc 07EE901A 		vmov	s15, r1	@ int
 196 00e0 F8EEE77A 		vcvt.f32.s32	s15, s15
 197 00e4 9FED0D7A 		vldr.32	s14, .L13+12
 198 00e8 27EE877A 		vmul.f32	s14, s15, s14
 199 00ec B2F90010 		ldrsh	r1, [r2]
 200 00f0 07EE901A 		vmov	s15, r1	@ int
 201 00f4 F8EEE77A 		vcvt.f32.s32	s15, s15
 202 00f8 77EEC77A 		vsub.f32	s15, s15, s14
 203 00fc FDEEE77A 		vcvt.s32.f32	s15, s15
 204 0100 17EE901A 		vmov	r1, s15	@ int
 205 0104 1180     		strh	r1, [r2]	@ movhi
  58:Src/control.c ****     }else{
 206              		.loc 1 58 0
 207 0106 013B     		subs	r3, r3, #1
 208 0108 014A     		ldr	r2, .L13
 209 010a 9380     		strh	r3, [r2, #4]	@ movhi
 210 010c A5E7     		b	.L6
 211              	.L14:
 212 010e 00BF     		.align	2
 213              	.L13:
 214 0110 00000000 		.word	straight_tim
 215 0114 00000000 		.word	flag
 216 0118 00000000 		.word	straight_tgt
ARM GAS  C:\Users\kotaro\AppData\Local\Temp\cc3sl2pj.s 			page 6


 217 011c 6F12833A 		.word	981668463
 218 0120 00000000 		.word	0
 219 0124 00000000 		.word	.LANCHOR0
 220 0128 00000000 		.word	.LANCHOR1
 221 012c 00000000 		.word	enc_l
 222 0130 00000000 		.word	.LANCHOR2
 223 0134 00000000 		.word	.LANCHOR3
 224 0138 00000000 		.word	.LANCHOR4
 225 013c 00000000 		.word	enc_r
 226 0140 00000000 		.word	.LANCHOR5
 227              		.cfi_endproc
 228              	.LFE127:
 230              		.section	.text.Control_pwm,"ax",%progbits
 231              		.align	1
 232              		.global	Control_pwm
 233              		.syntax unified
 234              		.thumb
 235              		.thumb_func
 236              		.fpu fpv4-sp-d16
 238              	Control_pwm:
 239              	.LFB128:
  68:Src/control.c **** 
  69:Src/control.c **** 
  70:Src/control.c **** void Control_pwm(void){
 240              		.loc 1 70 0
 241              		.cfi_startproc
 242              		@ args = 0, pretend = 0, frame = 0
 243              		@ frame_needed = 0, uses_anonymous_args = 0
 244 0000 08B5     		push	{r3, lr}
 245              	.LCFI4:
 246              		.cfi_def_cfa_offset 8
 247              		.cfi_offset 3, -8
 248              		.cfi_offset 14, -4
 249              	.LVL13:
  71:Src/control.c ****     int16_t pwm_l=0,pwm_r=0;
  72:Src/control.c ****     /*
  73:Src/control.c ****     if(flag.wall==ON){
  74:Src/control.c ****         pwm_l += wall_pid;
  75:Src/control.c ****         pwm_r -= wall_pid;
  76:Src/control.c ****     }
  77:Src/control.c **** 
  78:Src/control.c ****     if(flag.fr_wall==ON){
  79:Src/control.c ****         pwm_l += fr_wall_pid_l;
  80:Src/control.c ****         pwm_r += fr_wall_pid_r;
  81:Src/control.c ****     }
  82:Src/control.c ****     */
  83:Src/control.c ****     if(flag.straight==ON){
 250              		.loc 1 83 0
 251 0002 084B     		ldr	r3, .L20
 252 0004 9B78     		ldrb	r3, [r3, #2]	@ zero_extendqisi2
 253 0006 DBB2     		uxtb	r3, r3
 254 0008 012B     		cmp	r3, #1
 255 000a 04D0     		beq	.L19
  71:Src/control.c ****     int16_t pwm_l=0,pwm_r=0;
 256              		.loc 1 71 0
 257 000c 0021     		movs	r1, #0
 258 000e 0846     		mov	r0, r1
ARM GAS  C:\Users\kotaro\AppData\Local\Temp\cc3sl2pj.s 			page 7


 259              	.LVL14:
 260              	.L16:
  84:Src/control.c ****         pwm_l += straight_pid_l;
  85:Src/control.c ****         pwm_r += straight_pid_r;
  86:Src/control.c ****     }
  87:Src/control.c ****     /*
  88:Src/control.c ****     if(flag.yawrate==ON){
  89:Src/control.c ****         pwm_l -= yawrate_pid;
  90:Src/control.c ****         pwm_r += yawrate_pid;
  91:Src/control.c ****     }
  92:Src/control.c ****     */
  93:Src/control.c ****     Motor_pwm(pwm_l,pwm_r);
 261              		.loc 1 93 0
 262 0010 FFF7FEFF 		bl	Motor_pwm
 263              	.LVL15:
  94:Src/control.c **** }...
 264              		.loc 1 94 0
 265 0014 08BD     		pop	{r3, pc}
 266              	.LVL16:
 267              	.L19:
  84:Src/control.c ****         pwm_l += straight_pid_l;
 268              		.loc 1 84 0
 269 0016 044B     		ldr	r3, .L20+4
 270 0018 B3F90000 		ldrsh	r0, [r3]
 271              	.LVL17:
  85:Src/control.c ****         pwm_r += straight_pid_r;
 272              		.loc 1 85 0
 273 001c 034B     		ldr	r3, .L20+8
 274 001e B3F90010 		ldrsh	r1, [r3]
 275              	.LVL18:
 276 0022 F5E7     		b	.L16
 277              	.L21:
 278              		.align	2
 279              	.L20:
 280 0024 00000000 		.word	flag
 281 0028 00000000 		.word	.LANCHOR2
 282 002c 00000000 		.word	.LANCHOR5
 283              		.cfi_endproc
 284              	.LFE128:
 286              		.global	y_before
 287              		.global	y_sum
 288              		.global	yawrate_pid
 289              		.global	s_before_r
 290              		.global	s_sum_r
 291              		.global	straight_pid_r
 292              		.global	s_before_l
 293              		.global	s_sum_l
 294              		.global	straight_pid_l
 295              		.section	.bss.s_before_l,"aw",%nobits
 296              		.align	2
 297              		.set	.LANCHOR0,. + 0
 300              	s_before_l:
 301 0000 00000000 		.space	4
 302              		.section	.bss.s_before_r,"aw",%nobits
 303              		.align	2
 304              		.set	.LANCHOR3,. + 0
 307              	s_before_r:
ARM GAS  C:\Users\kotaro\AppData\Local\Temp\cc3sl2pj.s 			page 8


 308 0000 00000000 		.space	4
 309              		.section	.bss.s_sum_l,"aw",%nobits
 310              		.align	2
 311              		.set	.LANCHOR1,. + 0
 314              	s_sum_l:
 315 0000 00000000 		.space	4
 316              		.section	.bss.s_sum_r,"aw",%nobits
 317              		.align	2
 318              		.set	.LANCHOR4,. + 0
 321              	s_sum_r:
 322 0000 00000000 		.space	4
 323              		.section	.bss.straight_pid_l,"aw",%nobits
 324              		.align	1
 325              		.set	.LANCHOR2,. + 0
 328              	straight_pid_l:
 329 0000 0000     		.space	2
 330              		.section	.bss.straight_pid_r,"aw",%nobits
 331              		.align	1
 332              		.set	.LANCHOR5,. + 0
 335              	straight_pid_r:
 336 0000 0000     		.space	2
 337              		.section	.bss.y_before,"aw",%nobits
 338              		.align	2
 341              	y_before:
 342 0000 00000000 		.space	4
 343              		.section	.bss.y_sum,"aw",%nobits
 344              		.align	2
 347              	y_sum:
 348 0000 00000000 		.space	4
 349              		.section	.bss.yawrate_pid,"aw",%nobits
 350              		.align	1
 353              	yawrate_pid:
 354 0000 0000     		.space	2
 355              		.text
 356              	.Letext0:
 357              		.file 2 "c:\\program files (x86)\\gnu tools arm embedded\\7 2017-q4-major\\arm-none-eabi\\include\
 358              		.file 3 "c:\\program files (x86)\\gnu tools arm embedded\\7 2017-q4-major\\arm-none-eabi\\include\
 359              		.file 4 "Inc/global.h"
 360              		.file 5 "Drivers/CMSIS/Include/core_cm4.h"
 361              		.file 6 "Drivers/CMSIS/Device/ST/STM32F4xx/Include/system_stm32f4xx.h"
 362              		.file 7 "Drivers/CMSIS/Device/ST/STM32F4xx/Include/stm32f405xx.h"
 363              		.file 8 "c:\\program files (x86)\\gnu tools arm embedded\\7 2017-q4-major\\arm-none-eabi\\include\
 364              		.file 9 "c:\\program files (x86)\\gnu tools arm embedded\\7 2017-q4-major\\arm-none-eabi\\include\
 365              		.file 10 "c:\\program files (x86)\\gnu tools arm embedded\\7 2017-q4-major\\lib\\gcc\\arm-none-eab
 366              		.file 11 "c:\\program files (x86)\\gnu tools arm embedded\\7 2017-q4-major\\arm-none-eabi\\include
 367              		.file 12 "Drivers/STM32F4xx_HAL_Driver/Inc/stm32f4xx_hal_def.h"
 368              		.file 13 "Drivers/STM32F4xx_HAL_Driver/Inc/stm32f4xx_hal_dma.h"
 369              		.file 14 "Drivers/STM32F4xx_HAL_Driver/Inc/stm32f4xx_hal_tim.h"
 370              		.file 15 "Inc/tim.h"
ARM GAS  C:\Users\kotaro\AppData\Local\Temp\cc3sl2pj.s 			page 9

