ARM GAS  C:\Users\kotaro\AppData\Local\Temp\ccPNXRgQ.s 			page 1


   1              		.cpu cortex-m4
   2              		.eabi_attribute 27, 1
   3              		.eabi_attribute 28, 1
   4              		.eabi_attribute 20, 1
   5              		.eabi_attribute 21, 1
   6              		.eabi_attribute 23, 3
   7              		.eabi_attribute 24, 1
   8              		.eabi_attribute 25, 1
   9              		.eabi_attribute 26, 1
  10              		.eabi_attribute 30, 1
  11              		.eabi_attribute 34, 1
  12              		.eabi_attribute 18, 4
  13              		.file	"main.c"
  14              		.text
  15              	.Ltext0:
  16              		.cfi_sections	.debug_frame
  17              		.section	.text.__io_putchar,"ax",%progbits
  18              		.align	1
  19              		.global	__io_putchar
  20              		.syntax unified
  21              		.thumb
  22              		.thumb_func
  23              		.fpu fpv4-sp-d16
  25              	__io_putchar:
  26              	.LFB159:
  27              		.file 1 "Src/main.c"
   1:Src/main.c    **** /**
   2:Src/main.c    ****   ******************************************************************************
   3:Src/main.c    ****   * @file           : main.c
   4:Src/main.c    ****   * @brief          : Main program body
   5:Src/main.c    ****   ******************************************************************************
   6:Src/main.c    ****   ** This notice applies to any and all portions of this file
   7:Src/main.c    ****   * that are not between comment pairs USER CODE BEGIN and
   8:Src/main.c    ****   * USER CODE END. Other portions of this file, whether 
   9:Src/main.c    ****   * inserted by the user or by software development tools
  10:Src/main.c    ****   * are owned by their respective copyright owners.
  11:Src/main.c    ****   *
  12:Src/main.c    ****   * COPYRIGHT(c) 2018 STMicroelectronics
  13:Src/main.c    ****   *
  14:Src/main.c    ****   * Redistribution and use in source and binary forms, with or without modification,
  15:Src/main.c    ****   * are permitted provided that the following conditions are met:
  16:Src/main.c    ****   *   1. Redistributions of source code must retain the above copyright notice,
  17:Src/main.c    ****   *      this list of conditions and the following disclaimer.
  18:Src/main.c    ****   *   2. Redistributions in binary form must reproduce the above copyright notice,
  19:Src/main.c    ****   *      this list of conditions and the following disclaimer in the documentation
  20:Src/main.c    ****   *      and/or other materials provided with the distribution.
  21:Src/main.c    ****   *   3. Neither the name of STMicroelectronics nor the names of its contributors
  22:Src/main.c    ****   *      may be used to endorse or promote products derived from this software
  23:Src/main.c    ****   *      without specific prior written permission.
  24:Src/main.c    ****   *
  25:Src/main.c    ****   * THIS SOFTWARE IS PROVIDED BY THE COPYRIGHT HOLDERS AND CONTRIBUTORS "AS IS"
  26:Src/main.c    ****   * AND ANY EXPRESS OR IMPLIED WARRANTIES, INCLUDING, BUT NOT LIMITED TO, THE
  27:Src/main.c    ****   * IMPLIED WARRANTIES OF MERCHANTABILITY AND FITNESS FOR A PARTICULAR PURPOSE ARE
  28:Src/main.c    ****   * DISCLAIMED. IN NO EVENT SHALL THE COPYRIGHT HOLDER OR CONTRIBUTORS BE LIABLE
  29:Src/main.c    ****   * FOR ANY DIRECT, INDIRECT, INCIDENTAL, SPECIAL, EXEMPLARY, OR CONSEQUENTIAL
  30:Src/main.c    ****   * DAMAGES (INCLUDING, BUT NOT LIMITED TO, PROCUREMENT OF SUBSTITUTE GOODS OR
  31:Src/main.c    ****   * SERVICES; LOSS OF USE, DATA, OR PROFITS; OR BUSINESS INTERRUPTION) HOWEVER
ARM GAS  C:\Users\kotaro\AppData\Local\Temp\ccPNXRgQ.s 			page 2


  32:Src/main.c    ****   * CAUSED AND ON ANY THEORY OF LIABILITY, WHETHER IN CONTRACT, STRICT LIABILITY,
  33:Src/main.c    ****   * OR TORT (INCLUDING NEGLIGENCE OR OTHERWISE) ARISING IN ANY WAY OUT OF THE USE
  34:Src/main.c    ****   * OF THIS SOFTWARE, EVEN IF ADVISED OF THE POSSIBILITY OF SUCH DAMAGE.
  35:Src/main.c    ****   *
  36:Src/main.c    ****   ******************************************************************************
  37:Src/main.c    ****   */
  38:Src/main.c    **** /* Includes ------------------------------------------------------------------*/
  39:Src/main.c    **** #include "main.h"
  40:Src/main.c    **** #include "stm32f4xx_hal.h"
  41:Src/main.c    **** #include "adc.h"
  42:Src/main.c    **** #include "spi.h"
  43:Src/main.c    **** #include "tim.h"
  44:Src/main.c    **** #include "usart.h"
  45:Src/main.c    **** #include "gpio.h"
  46:Src/main.c    **** 
  47:Src/main.c    **** /* USER CODE BEGIN Includes */
  48:Src/main.c    **** #include "stdint.h"
  49:Src/main.c    **** #include "arm_math.h"
  50:Src/main.c    **** #include "interface.h"
  51:Src/main.c    **** #include "other_function.h"
  52:Src/main.c    **** #include "mode.h"
  53:Src/main.c    **** #include "filter.h"
  54:Src/main.c    **** #include "global.h"
  55:Src/main.c    **** /* USER CODE END Includes */
  56:Src/main.c    **** 
  57:Src/main.c    **** /* Private variables ---------------------------------------------------------*/
  58:Src/main.c    **** 
  59:Src/main.c    **** /* USER CODE BEGIN PV */
  60:Src/main.c    **** #ifdef __GNUC__
  61:Src/main.c    **** #define PUTCHAR_PROTOTYPE int __io_putchar(int ch)
  62:Src/main.c    **** #else
  63:Src/main.c    **** #define PUTCHAR_PROTOTYPE int fputc(int ch, FILE *f)
  64:Src/main.c    **** #endif /* __GNUC__ */
  65:Src/main.c    **** void __io_putchar(uint8_t ch) {
  28              		.loc 1 65 0
  29              		.cfi_startproc
  30              		@ args = 0, pretend = 0, frame = 8
  31              		@ frame_needed = 0, uses_anonymous_args = 0
  32              	.LVL0:
  33 0000 00B5     		push	{lr}
  34              	.LCFI0:
  35              		.cfi_def_cfa_offset 4
  36              		.cfi_offset 14, -4
  37 0002 83B0     		sub	sp, sp, #12
  38              	.LCFI1:
  39              		.cfi_def_cfa_offset 16
  40 0004 02A9     		add	r1, sp, #8
  41 0006 01F8010D 		strb	r0, [r1, #-1]!
  66:Src/main.c    ****   HAL_UART_Transmit(&huart3, &ch, 1, 1);
  42              		.loc 1 66 0
  43 000a 0123     		movs	r3, #1
  44 000c 1A46     		mov	r2, r3
  45 000e 0348     		ldr	r0, .L3
  46              	.LVL1:
  47 0010 FFF7FEFF 		bl	HAL_UART_Transmit
  48              	.LVL2:
  67:Src/main.c    **** }
ARM GAS  C:\Users\kotaro\AppData\Local\Temp\ccPNXRgQ.s 			page 3


  49              		.loc 1 67 0
  50 0014 03B0     		add	sp, sp, #12
  51              	.LCFI2:
  52              		.cfi_def_cfa_offset 4
  53              		@ sp needed
  54 0016 5DF804FB 		ldr	pc, [sp], #4
  55              	.L4:
  56 001a 00BF     		.align	2
  57              	.L3:
  58 001c 00000000 		.word	huart3
  59              		.cfi_endproc
  60              	.LFE159:
  62              		.section	.text.Init_Main,"ax",%progbits
  63              		.align	1
  64              		.global	Init_Main
  65              		.syntax unified
  66              		.thumb
  67              		.thumb_func
  68              		.fpu fpv4-sp-d16
  70              	Init_Main:
  71              	.LFB162:
  68:Src/main.c    **** /* Private variables ---------------------------------------------------------*/
  69:Src/main.c    **** 
  70:Src/main.c    **** /* USER CODE END PV */
  71:Src/main.c    **** 
  72:Src/main.c    **** /* Private function prototypes -----------------------------------------------*/
  73:Src/main.c    **** void SystemClock_Config(void);
  74:Src/main.c    **** 
  75:Src/main.c    **** /* USER CODE BEGIN PFP */
  76:Src/main.c    **** /* Private function prototypes -----------------------------------------------*/
  77:Src/main.c    **** void Init_Main(void);
  78:Src/main.c    **** /* USER CODE END PFP */
  79:Src/main.c    **** 
  80:Src/main.c    **** /* USER CODE BEGIN 0 */
  81:Src/main.c    **** 
  82:Src/main.c    **** /* USER CODE END 0 */
  83:Src/main.c    **** 
  84:Src/main.c    **** /**
  85:Src/main.c    ****   * @brief  The application entry point.
  86:Src/main.c    ****   *
  87:Src/main.c    ****   * @retval None
  88:Src/main.c    ****   */
  89:Src/main.c    **** int main(void)
  90:Src/main.c    **** {
  91:Src/main.c    ****   /* USER CODE BEGIN 1 */
  92:Src/main.c    ****   
  93:Src/main.c    ****   
  94:Src/main.c    ****   /* USER CODE END 1 */
  95:Src/main.c    **** 
  96:Src/main.c    ****   /* MCU Configuration----------------------------------------------------------*/
  97:Src/main.c    **** 
  98:Src/main.c    ****   /* Reset of all peripherals, Initializes the Flash interface and the Systick. */
  99:Src/main.c    ****   HAL_Init();
 100:Src/main.c    **** 
 101:Src/main.c    ****   /* USER CODE BEGIN Init */
 102:Src/main.c    **** 
 103:Src/main.c    ****   /* USER CODE END Init */
ARM GAS  C:\Users\kotaro\AppData\Local\Temp\ccPNXRgQ.s 			page 4


 104:Src/main.c    **** 
 105:Src/main.c    ****   /* Configure the system clock */
 106:Src/main.c    ****   SystemClock_Config();
 107:Src/main.c    **** 
 108:Src/main.c    ****   /* USER CODE BEGIN SysInit */
 109:Src/main.c    **** 
 110:Src/main.c    ****   /* USER CODE END SysInit */
 111:Src/main.c    **** 
 112:Src/main.c    ****   /* Initialize all configured peripherals */
 113:Src/main.c    ****   MX_GPIO_Init();
 114:Src/main.c    ****   MX_USART3_UART_Init();
 115:Src/main.c    ****   MX_TIM4_Init();
 116:Src/main.c    ****   MX_SPI2_Init();
 117:Src/main.c    ****   MX_TIM3_Init();
 118:Src/main.c    ****   MX_TIM2_Init();
 119:Src/main.c    ****   MX_TIM1_Init();
 120:Src/main.c    ****   MX_TIM5_Init();
 121:Src/main.c    ****   MX_ADC1_Init();
 122:Src/main.c    ****   MX_ADC2_Init();
 123:Src/main.c    ****   MX_ADC3_Init();
 124:Src/main.c    ****   /* USER CODE BEGIN 2 */
 125:Src/main.c    ****   Init_Main();
 126:Src/main.c    ****   HAL_Delay(1000);
 127:Src/main.c    ****   gyro_offset_calc_reset();
 128:Src/main.c    ****   /* USER CODE END 2 */
 129:Src/main.c    **** 
 130:Src/main.c    ****   /* Infinite loop */
 131:Src/main.c    ****   /* USER CODE BEGIN WHILE */
 132:Src/main.c    ****   while (1)
 133:Src/main.c    ****   {
 134:Src/main.c    **** 
 135:Src/main.c    ****   /* USER CODE END WHILE */
 136:Src/main.c    **** 
 137:Src/main.c    ****   /* USER CODE BEGIN 3 */
 138:Src/main.c    ****   printf("%f\r",gyro.degree);
 139:Src/main.c    ****   }
 140:Src/main.c    ****   /* USER CODE END 3 */
 141:Src/main.c    **** 
 142:Src/main.c    **** }
 143:Src/main.c    **** 
 144:Src/main.c    **** /**
 145:Src/main.c    ****   * @brief System Clock Configuration
 146:Src/main.c    ****   * @retval None
 147:Src/main.c    ****   */
 148:Src/main.c    **** void SystemClock_Config(void)
 149:Src/main.c    **** {
 150:Src/main.c    **** 
 151:Src/main.c    ****   RCC_OscInitTypeDef RCC_OscInitStruct;
 152:Src/main.c    ****   RCC_ClkInitTypeDef RCC_ClkInitStruct;
 153:Src/main.c    **** 
 154:Src/main.c    ****     /**Configure the main internal regulator output voltage 
 155:Src/main.c    ****     */
 156:Src/main.c    ****   __HAL_RCC_PWR_CLK_ENABLE();
 157:Src/main.c    **** 
 158:Src/main.c    ****   __HAL_PWR_VOLTAGESCALING_CONFIG(PWR_REGULATOR_VOLTAGE_SCALE1);
 159:Src/main.c    **** 
 160:Src/main.c    ****     /**Initializes the CPU, AHB and APB busses clocks 
ARM GAS  C:\Users\kotaro\AppData\Local\Temp\ccPNXRgQ.s 			page 5


 161:Src/main.c    ****     */
 162:Src/main.c    ****   RCC_OscInitStruct.OscillatorType = RCC_OSCILLATORTYPE_HSI;
 163:Src/main.c    ****   RCC_OscInitStruct.HSIState = RCC_HSI_ON;
 164:Src/main.c    ****   RCC_OscInitStruct.HSICalibrationValue = 16;
 165:Src/main.c    ****   RCC_OscInitStruct.PLL.PLLState = RCC_PLL_ON;
 166:Src/main.c    ****   RCC_OscInitStruct.PLL.PLLSource = RCC_PLLSOURCE_HSI;
 167:Src/main.c    ****   RCC_OscInitStruct.PLL.PLLM = 8;
 168:Src/main.c    ****   RCC_OscInitStruct.PLL.PLLN = 80;
 169:Src/main.c    ****   RCC_OscInitStruct.PLL.PLLP = RCC_PLLP_DIV2;
 170:Src/main.c    ****   RCC_OscInitStruct.PLL.PLLQ = 4;
 171:Src/main.c    ****   if (HAL_RCC_OscConfig(&RCC_OscInitStruct) != HAL_OK)
 172:Src/main.c    ****   {
 173:Src/main.c    ****     _Error_Handler(__FILE__, __LINE__);
 174:Src/main.c    ****   }
 175:Src/main.c    **** 
 176:Src/main.c    ****     /**Initializes the CPU, AHB and APB busses clocks 
 177:Src/main.c    ****     */
 178:Src/main.c    ****   RCC_ClkInitStruct.ClockType = RCC_CLOCKTYPE_HCLK|RCC_CLOCKTYPE_SYSCLK
 179:Src/main.c    ****                               |RCC_CLOCKTYPE_PCLK1|RCC_CLOCKTYPE_PCLK2;
 180:Src/main.c    ****   RCC_ClkInitStruct.SYSCLKSource = RCC_SYSCLKSOURCE_PLLCLK;
 181:Src/main.c    ****   RCC_ClkInitStruct.AHBCLKDivider = RCC_SYSCLK_DIV1;
 182:Src/main.c    ****   RCC_ClkInitStruct.APB1CLKDivider = RCC_HCLK_DIV2;
 183:Src/main.c    ****   RCC_ClkInitStruct.APB2CLKDivider = RCC_HCLK_DIV1;
 184:Src/main.c    **** 
 185:Src/main.c    ****   if (HAL_RCC_ClockConfig(&RCC_ClkInitStruct, FLASH_LATENCY_2) != HAL_OK)
 186:Src/main.c    ****   {
 187:Src/main.c    ****     _Error_Handler(__FILE__, __LINE__);
 188:Src/main.c    ****   }
 189:Src/main.c    **** 
 190:Src/main.c    ****     /**Configure the Systick interrupt time 
 191:Src/main.c    ****     */
 192:Src/main.c    ****   HAL_SYSTICK_Config(HAL_RCC_GetHCLKFreq()/1000);
 193:Src/main.c    **** 
 194:Src/main.c    ****     /**Configure the Systick 
 195:Src/main.c    ****     */
 196:Src/main.c    ****   HAL_SYSTICK_CLKSourceConfig(SYSTICK_CLKSOURCE_HCLK);
 197:Src/main.c    **** 
 198:Src/main.c    ****   /* SysTick_IRQn interrupt configuration */
 199:Src/main.c    ****   HAL_NVIC_SetPriority(SysTick_IRQn, 0, 0);
 200:Src/main.c    **** }
 201:Src/main.c    **** 
 202:Src/main.c    **** /* USER CODE BEGIN 4 */
 203:Src/main.c    **** 
 204:Src/main.c    **** /****************************************************************************************
 205:Src/main.c    ****  * outline  : init main(setbuf,tim5,3,4,gyro,battery,flag,ms_count)
 206:Src/main.c    ****  * argument : void
 207:Src/main.c    ****  * return   : void
 208:Src/main.c    **** ********************************************************************************************/
 209:Src/main.c    **** void Init_Main(void){
  72              		.loc 1 209 0
  73              		.cfi_startproc
  74              		@ args = 0, pretend = 0, frame = 0
  75              		@ frame_needed = 0, uses_anonymous_args = 0
  76 0000 08B5     		push	{r3, lr}
  77              	.LCFI3:
  78              		.cfi_def_cfa_offset 8
  79              		.cfi_offset 3, -8
ARM GAS  C:\Users\kotaro\AppData\Local\Temp\ccPNXRgQ.s 			page 6


  80              		.cfi_offset 14, -4
 210:Src/main.c    ****   //printf
 211:Src/main.c    ****   setbuf(stdout, NULL);
  81              		.loc 1 211 0
  82 0002 114B     		ldr	r3, .L7
  83 0004 1B68     		ldr	r3, [r3]
  84 0006 0021     		movs	r1, #0
  85 0008 9868     		ldr	r0, [r3, #8]
  86 000a FFF7FEFF 		bl	setbuf
  87              	.LVL3:
 212:Src/main.c    ****   //tim start
 213:Src/main.c    ****   HAL_TIM_Base_Start_IT(&htim5);
  88              		.loc 1 213 0
  89 000e 0F48     		ldr	r0, .L7+4
  90 0010 FFF7FEFF 		bl	HAL_TIM_Base_Start_IT
  91              	.LVL4:
 214:Src/main.c    ****   HAL_TIM_Encoder_Start( &htim3, TIM_CHANNEL_ALL );
  92              		.loc 1 214 0
  93 0014 1821     		movs	r1, #24
  94 0016 0E48     		ldr	r0, .L7+8
  95 0018 FFF7FEFF 		bl	HAL_TIM_Encoder_Start
  96              	.LVL5:
 215:Src/main.c    ****   HAL_TIM_Encoder_Start( &htim4, TIM_CHANNEL_ALL );
  97              		.loc 1 215 0
  98 001c 1821     		movs	r1, #24
  99 001e 0D48     		ldr	r0, .L7+12
 100 0020 FFF7FEFF 		bl	HAL_TIM_Encoder_Start
 101              	.LVL6:
 216:Src/main.c    ****   //reset
 217:Src/main.c    ****   Reset_Flag();
 102              		.loc 1 217 0
 103 0024 FFF7FEFF 		bl	Reset_Flag
 104              	.LVL7:
 218:Src/main.c    ****   Reset_Value();
 105              		.loc 1 218 0
 106 0028 FFF7FEFF 		bl	Reset_Value
 107              	.LVL8:
 219:Src/main.c    ****   //sensor set
 220:Src/main.c    ****   Input_Sensor();
 108              		.loc 1 220 0
 109 002c FFF7FEFF 		bl	Input_Sensor
 110              	.LVL9:
 221:Src/main.c    ****   //gyro
 222:Src/main.c    ****   set_mpu6500();
 111              		.loc 1 222 0
 112 0030 FFF7FEFF 		bl	set_mpu6500
 113              	.LVL10:
 223:Src/main.c    ****   //battry check
 224:Src/main.c    ****   Batt_check();
 114              		.loc 1 224 0
 115 0034 FFF7FEFF 		bl	Batt_check
 116              	.LVL11:
 225:Src/main.c    **** 
 226:Src/main.c    ****   //finish Init_Main
 227:Src/main.c    ****   Output_Buzzer(HZ_B);
 117              		.loc 1 227 0
 118 0038 5120     		movs	r0, #81
ARM GAS  C:\Users\kotaro\AppData\Local\Temp\ccPNXRgQ.s 			page 7


 119 003a FFF7FEFF 		bl	Output_Buzzer
 120              	.LVL12:
 228:Src/main.c    ****   Output_Buzzer(HZ_A);
 121              		.loc 1 228 0
 122 003e 5B20     		movs	r0, #91
 123 0040 FFF7FEFF 		bl	Output_Buzzer
 124              	.LVL13:
 229:Src/main.c    **** }
 125              		.loc 1 229 0
 126 0044 08BD     		pop	{r3, pc}
 127              	.L8:
 128 0046 00BF     		.align	2
 129              	.L7:
 130 0048 00000000 		.word	_impure_ptr
 131 004c 00000000 		.word	htim5
 132 0050 00000000 		.word	htim3
 133 0054 00000000 		.word	htim4
 134              		.cfi_endproc
 135              	.LFE162:
 137              		.section	.text._Error_Handler,"ax",%progbits
 138              		.align	1
 139              		.global	_Error_Handler
 140              		.syntax unified
 141              		.thumb
 142              		.thumb_func
 143              		.fpu fpv4-sp-d16
 145              	_Error_Handler:
 146              	.LFB163:
 230:Src/main.c    **** /* USER CODE END 4 */
 231:Src/main.c    **** 
 232:Src/main.c    **** /**
 233:Src/main.c    ****   * @brief  This function is executed in case of error occurrence.
 234:Src/main.c    ****   * @param  file: The file name as string.
 235:Src/main.c    ****   * @param  line: The line in file as a number.
 236:Src/main.c    ****   * @retval None
 237:Src/main.c    ****   */
 238:Src/main.c    **** void _Error_Handler(char *file, int line)
 239:Src/main.c    **** {
 147              		.loc 1 239 0
 148              		.cfi_startproc
 149              		@ Volatile: function does not return.
 150              		@ args = 0, pretend = 0, frame = 0
 151              		@ frame_needed = 0, uses_anonymous_args = 0
 152              		@ link register save eliminated.
 153              	.LVL14:
 154              	.L10:
 155 0000 FEE7     		b	.L10
 156              		.cfi_endproc
 157              	.LFE163:
 159              		.section	.text.SystemClock_Config,"ax",%progbits
 160              		.align	1
 161              		.global	SystemClock_Config
 162              		.syntax unified
 163              		.thumb
 164              		.thumb_func
 165              		.fpu fpv4-sp-d16
 167              	SystemClock_Config:
ARM GAS  C:\Users\kotaro\AppData\Local\Temp\ccPNXRgQ.s 			page 8


 168              	.LFB161:
 149:Src/main.c    **** 
 169              		.loc 1 149 0
 170              		.cfi_startproc
 171              		@ args = 0, pretend = 0, frame = 80
 172              		@ frame_needed = 0, uses_anonymous_args = 0
 149:Src/main.c    **** 
 173              		.loc 1 149 0
 174 0000 00B5     		push	{lr}
 175              	.LCFI4:
 176              		.cfi_def_cfa_offset 4
 177              		.cfi_offset 14, -4
 178 0002 95B0     		sub	sp, sp, #84
 179              	.LCFI5:
 180              		.cfi_def_cfa_offset 88
 181              	.LBB2:
 156:Src/main.c    **** 
 182              		.loc 1 156 0
 183 0004 0022     		movs	r2, #0
 184 0006 0192     		str	r2, [sp, #4]
 185 0008 284B     		ldr	r3, .L17
 186 000a 196C     		ldr	r1, [r3, #64]
 187 000c 41F08051 		orr	r1, r1, #268435456
 188 0010 1964     		str	r1, [r3, #64]
 189 0012 1B6C     		ldr	r3, [r3, #64]
 190 0014 03F08053 		and	r3, r3, #268435456
 191 0018 0193     		str	r3, [sp, #4]
 192 001a 019B     		ldr	r3, [sp, #4]
 193              	.LBE2:
 194              	.LBB3:
 158:Src/main.c    **** 
 195              		.loc 1 158 0
 196 001c 0292     		str	r2, [sp, #8]
 197 001e 244B     		ldr	r3, .L17+4
 198 0020 1968     		ldr	r1, [r3]
 199 0022 41F48041 		orr	r1, r1, #16384
 200 0026 1960     		str	r1, [r3]
 201 0028 1B68     		ldr	r3, [r3]
 202 002a 03F48043 		and	r3, r3, #16384
 203 002e 0293     		str	r3, [sp, #8]
 204 0030 029B     		ldr	r3, [sp, #8]
 205              	.LBE3:
 162:Src/main.c    ****   RCC_OscInitStruct.HSIState = RCC_HSI_ON;
 206              		.loc 1 162 0
 207 0032 0223     		movs	r3, #2
 208 0034 0893     		str	r3, [sp, #32]
 163:Src/main.c    ****   RCC_OscInitStruct.HSICalibrationValue = 16;
 209              		.loc 1 163 0
 210 0036 0121     		movs	r1, #1
 211 0038 0B91     		str	r1, [sp, #44]
 164:Src/main.c    ****   RCC_OscInitStruct.PLL.PLLState = RCC_PLL_ON;
 212              		.loc 1 164 0
 213 003a 1021     		movs	r1, #16
 214 003c 0C91     		str	r1, [sp, #48]
 165:Src/main.c    ****   RCC_OscInitStruct.PLL.PLLSource = RCC_PLLSOURCE_HSI;
 215              		.loc 1 165 0
 216 003e 0E93     		str	r3, [sp, #56]
ARM GAS  C:\Users\kotaro\AppData\Local\Temp\ccPNXRgQ.s 			page 9


 166:Src/main.c    ****   RCC_OscInitStruct.PLL.PLLM = 8;
 217              		.loc 1 166 0
 218 0040 0F92     		str	r2, [sp, #60]
 167:Src/main.c    ****   RCC_OscInitStruct.PLL.PLLN = 80;
 219              		.loc 1 167 0
 220 0042 0822     		movs	r2, #8
 221 0044 1092     		str	r2, [sp, #64]
 168:Src/main.c    ****   RCC_OscInitStruct.PLL.PLLP = RCC_PLLP_DIV2;
 222              		.loc 1 168 0
 223 0046 5022     		movs	r2, #80
 224 0048 1192     		str	r2, [sp, #68]
 169:Src/main.c    ****   RCC_OscInitStruct.PLL.PLLQ = 4;
 225              		.loc 1 169 0
 226 004a 1293     		str	r3, [sp, #72]
 170:Src/main.c    ****   if (HAL_RCC_OscConfig(&RCC_OscInitStruct) != HAL_OK)
 227              		.loc 1 170 0
 228 004c 0423     		movs	r3, #4
 229 004e 1393     		str	r3, [sp, #76]
 171:Src/main.c    ****   {
 230              		.loc 1 171 0
 231 0050 08A8     		add	r0, sp, #32
 232 0052 FFF7FEFF 		bl	HAL_RCC_OscConfig
 233              	.LVL15:
 234 0056 08BB     		cbnz	r0, .L15
 178:Src/main.c    ****                               |RCC_CLOCKTYPE_PCLK1|RCC_CLOCKTYPE_PCLK2;
 235              		.loc 1 178 0
 236 0058 0F23     		movs	r3, #15
 237 005a 0393     		str	r3, [sp, #12]
 180:Src/main.c    ****   RCC_ClkInitStruct.AHBCLKDivider = RCC_SYSCLK_DIV1;
 238              		.loc 1 180 0
 239 005c 0221     		movs	r1, #2
 240 005e 0491     		str	r1, [sp, #16]
 181:Src/main.c    ****   RCC_ClkInitStruct.APB1CLKDivider = RCC_HCLK_DIV2;
 241              		.loc 1 181 0
 242 0060 0023     		movs	r3, #0
 243 0062 0593     		str	r3, [sp, #20]
 182:Src/main.c    ****   RCC_ClkInitStruct.APB2CLKDivider = RCC_HCLK_DIV1;
 244              		.loc 1 182 0
 245 0064 4FF48052 		mov	r2, #4096
 246 0068 0692     		str	r2, [sp, #24]
 183:Src/main.c    **** 
 247              		.loc 1 183 0
 248 006a 0793     		str	r3, [sp, #28]
 185:Src/main.c    ****   {
 249              		.loc 1 185 0
 250 006c 03A8     		add	r0, sp, #12
 251 006e FFF7FEFF 		bl	HAL_RCC_ClockConfig
 252              	.LVL16:
 253 0072 B8B9     		cbnz	r0, .L16
 192:Src/main.c    **** 
 254              		.loc 1 192 0
 255 0074 FFF7FEFF 		bl	HAL_RCC_GetHCLKFreq
 256              	.LVL17:
 257 0078 0E4B     		ldr	r3, .L17+8
 258 007a A3FB0030 		umull	r3, r0, r3, r0
 259 007e 8009     		lsrs	r0, r0, #6
 260 0080 FFF7FEFF 		bl	HAL_SYSTICK_Config
ARM GAS  C:\Users\kotaro\AppData\Local\Temp\ccPNXRgQ.s 			page 10


 261              	.LVL18:
 196:Src/main.c    **** 
 262              		.loc 1 196 0
 263 0084 0420     		movs	r0, #4
 264 0086 FFF7FEFF 		bl	HAL_SYSTICK_CLKSourceConfig
 265              	.LVL19:
 199:Src/main.c    **** }
 266              		.loc 1 199 0
 267 008a 0022     		movs	r2, #0
 268 008c 1146     		mov	r1, r2
 269 008e 4FF0FF30 		mov	r0, #-1
 270 0092 FFF7FEFF 		bl	HAL_NVIC_SetPriority
 271              	.LVL20:
 200:Src/main.c    **** 
 272              		.loc 1 200 0
 273 0096 15B0     		add	sp, sp, #84
 274              	.LCFI6:
 275              		.cfi_remember_state
 276              		.cfi_def_cfa_offset 4
 277              		@ sp needed
 278 0098 5DF804FB 		ldr	pc, [sp], #4
 279              	.L15:
 280              	.LCFI7:
 281              		.cfi_restore_state
 173:Src/main.c    ****   }
 282              		.loc 1 173 0
 283 009c AD21     		movs	r1, #173
 284 009e 0648     		ldr	r0, .L17+12
 285 00a0 FFF7FEFF 		bl	_Error_Handler
 286              	.LVL21:
 287              	.L16:
 187:Src/main.c    ****   }
 288              		.loc 1 187 0
 289 00a4 BB21     		movs	r1, #187
 290 00a6 0448     		ldr	r0, .L17+12
 291 00a8 FFF7FEFF 		bl	_Error_Handler
 292              	.LVL22:
 293              	.L18:
 294              		.align	2
 295              	.L17:
 296 00ac 00380240 		.word	1073887232
 297 00b0 00700040 		.word	1073770496
 298 00b4 D34D6210 		.word	274877907
 299 00b8 00000000 		.word	.LC0
 300              		.cfi_endproc
 301              	.LFE161:
 303              		.global	__aeabi_f2d
 304              		.section	.text.main,"ax",%progbits
 305              		.align	1
 306              		.global	main
 307              		.syntax unified
 308              		.thumb
 309              		.thumb_func
 310              		.fpu fpv4-sp-d16
 312              	main:
 313              	.LFB160:
  90:Src/main.c    ****   /* USER CODE BEGIN 1 */
ARM GAS  C:\Users\kotaro\AppData\Local\Temp\ccPNXRgQ.s 			page 11


 314              		.loc 1 90 0
 315              		.cfi_startproc
 316              		@ Volatile: function does not return.
 317              		@ args = 0, pretend = 0, frame = 0
 318              		@ frame_needed = 0, uses_anonymous_args = 0
 319 0000 08B5     		push	{r3, lr}
 320              	.LCFI8:
 321              		.cfi_def_cfa_offset 8
 322              		.cfi_offset 3, -8
 323              		.cfi_offset 14, -4
  99:Src/main.c    **** 
 324              		.loc 1 99 0
 325 0002 FFF7FEFF 		bl	HAL_Init
 326              	.LVL23:
 106:Src/main.c    **** 
 327              		.loc 1 106 0
 328 0006 FFF7FEFF 		bl	SystemClock_Config
 329              	.LVL24:
 113:Src/main.c    ****   MX_USART3_UART_Init();
 330              		.loc 1 113 0
 331 000a FFF7FEFF 		bl	MX_GPIO_Init
 332              	.LVL25:
 114:Src/main.c    ****   MX_TIM4_Init();
 333              		.loc 1 114 0
 334 000e FFF7FEFF 		bl	MX_USART3_UART_Init
 335              	.LVL26:
 115:Src/main.c    ****   MX_SPI2_Init();
 336              		.loc 1 115 0
 337 0012 FFF7FEFF 		bl	MX_TIM4_Init
 338              	.LVL27:
 116:Src/main.c    ****   MX_TIM3_Init();
 339              		.loc 1 116 0
 340 0016 FFF7FEFF 		bl	MX_SPI2_Init
 341              	.LVL28:
 117:Src/main.c    ****   MX_TIM2_Init();
 342              		.loc 1 117 0
 343 001a FFF7FEFF 		bl	MX_TIM3_Init
 344              	.LVL29:
 118:Src/main.c    ****   MX_TIM1_Init();
 345              		.loc 1 118 0
 346 001e FFF7FEFF 		bl	MX_TIM2_Init
 347              	.LVL30:
 119:Src/main.c    ****   MX_TIM5_Init();
 348              		.loc 1 119 0
 349 0022 FFF7FEFF 		bl	MX_TIM1_Init
 350              	.LVL31:
 120:Src/main.c    ****   MX_ADC1_Init();
 351              		.loc 1 120 0
 352 0026 FFF7FEFF 		bl	MX_TIM5_Init
 353              	.LVL32:
 121:Src/main.c    ****   MX_ADC2_Init();
 354              		.loc 1 121 0
 355 002a FFF7FEFF 		bl	MX_ADC1_Init
 356              	.LVL33:
 122:Src/main.c    ****   MX_ADC3_Init();
 357              		.loc 1 122 0
 358 002e FFF7FEFF 		bl	MX_ADC2_Init
ARM GAS  C:\Users\kotaro\AppData\Local\Temp\ccPNXRgQ.s 			page 12


 359              	.LVL34:
 123:Src/main.c    ****   /* USER CODE BEGIN 2 */
 360              		.loc 1 123 0
 361 0032 FFF7FEFF 		bl	MX_ADC3_Init
 362              	.LVL35:
 125:Src/main.c    ****   HAL_Delay(1000);
 363              		.loc 1 125 0
 364 0036 FFF7FEFF 		bl	Init_Main
 365              	.LVL36:
 126:Src/main.c    ****   gyro_offset_calc_reset();
 366              		.loc 1 126 0
 367 003a 4FF47A70 		mov	r0, #1000
 368 003e FFF7FEFF 		bl	HAL_Delay
 369              	.LVL37:
 127:Src/main.c    ****   /* USER CODE END 2 */
 370              		.loc 1 127 0
 371 0042 FFF7FEFF 		bl	gyro_offset_calc_reset
 372              	.LVL38:
 373              	.L20:
 138:Src/main.c    ****   }
 374              		.loc 1 138 0 discriminator 1
 375 0046 054B     		ldr	r3, .L22
 376 0048 5868     		ldr	r0, [r3, #4]	@ float
 377 004a FFF7FEFF 		bl	__aeabi_f2d
 378              	.LVL39:
 379 004e 0246     		mov	r2, r0
 380 0050 0B46     		mov	r3, r1
 381 0052 0348     		ldr	r0, .L22+4
 382 0054 FFF7FEFF 		bl	printf
 383              	.LVL40:
 384 0058 F5E7     		b	.L20
 385              	.L23:
 386 005a 00BF     		.align	2
 387              	.L22:
 388 005c 00000000 		.word	gyro
 389 0060 00000000 		.word	.LC1
 390              		.cfi_endproc
 391              	.LFE160:
 393              		.section	.rodata.SystemClock_Config.str1.4,"aMS",%progbits,1
 394              		.align	2
 395              	.LC0:
 396 0000 5372632F 		.ascii	"Src/main.c\000"
 396      6D61696E 
 396      2E6300
 397              		.section	.rodata.main.str1.4,"aMS",%progbits,1
 398              		.align	2
 399              	.LC1:
 400 0000 25660D00 		.ascii	"%f\015\000"
 401              		.text
 402              	.Letext0:
 403              		.file 2 "c:\\program files (x86)\\gnu tools arm embedded\\7 2017-q4-major\\arm-none-eabi\\include\
 404              		.file 3 "c:\\program files (x86)\\gnu tools arm embedded\\7 2017-q4-major\\arm-none-eabi\\include\
 405              		.file 4 "Drivers/CMSIS/Include/core_cm4.h"
 406              		.file 5 "Drivers/CMSIS/Device/ST/STM32F4xx/Include/system_stm32f4xx.h"
 407              		.file 6 "Drivers/CMSIS/Device/ST/STM32F4xx/Include/stm32f405xx.h"
 408              		.file 7 "c:\\program files (x86)\\gnu tools arm embedded\\7 2017-q4-major\\arm-none-eabi\\include\
 409              		.file 8 "c:\\program files (x86)\\gnu tools arm embedded\\7 2017-q4-major\\arm-none-eabi\\include\
ARM GAS  C:\Users\kotaro\AppData\Local\Temp\ccPNXRgQ.s 			page 13


 410              		.file 9 "c:\\program files (x86)\\gnu tools arm embedded\\7 2017-q4-major\\lib\\gcc\\arm-none-eabi
 411              		.file 10 "c:\\program files (x86)\\gnu tools arm embedded\\7 2017-q4-major\\arm-none-eabi\\include
 412              		.file 11 "Drivers/STM32F4xx_HAL_Driver/Inc/stm32f4xx_hal_def.h"
 413              		.file 12 "Drivers/STM32F4xx_HAL_Driver/Inc/stm32f4xx_hal_rcc_ex.h"
 414              		.file 13 "Drivers/STM32F4xx_HAL_Driver/Inc/stm32f4xx_hal_rcc.h"
 415              		.file 14 "Drivers/STM32F4xx_HAL_Driver/Inc/stm32f4xx_hal_dma.h"
 416              		.file 15 "Drivers/STM32F4xx_HAL_Driver/Inc/stm32f4xx_hal_adc.h"
 417              		.file 16 "Drivers/STM32F4xx_HAL_Driver/Inc/stm32f4xx_hal_spi.h"
 418              		.file 17 "Drivers/STM32F4xx_HAL_Driver/Inc/stm32f4xx_hal_tim.h"
 419              		.file 18 "Drivers/STM32F4xx_HAL_Driver/Inc/stm32f4xx_hal_uart.h"
 420              		.file 19 "Inc/adc.h"
 421              		.file 20 "Inc/spi.h"
 422              		.file 21 "Inc/tim.h"
 423              		.file 22 "Inc/usart.h"
 424              		.file 23 "c:\\program files (x86)\\gnu tools arm embedded\\7 2017-q4-major\\arm-none-eabi\\include
 425              		.file 24 "Inc/global.h"
 426              		.file 25 "c:\\program files (x86)\\gnu tools arm embedded\\7 2017-q4-major\\arm-none-eabi\\include
 427              		.file 26 "Inc/other_function.h"
 428              		.file 27 "Inc/filter.h"
 429              		.file 28 "Inc/interface.h"
 430              		.file 29 "Drivers/STM32F4xx_HAL_Driver/Inc/stm32f4xx_hal_cortex.h"
 431              		.file 30 "Drivers/STM32F4xx_HAL_Driver/Inc/stm32f4xx_hal.h"
 432              		.file 31 "Inc/gpio.h"
ARM GAS  C:\Users\kotaro\AppData\Local\Temp\ccPNXRgQ.s 			page 14

