ARM GAS  C:\Users\kotaro\AppData\Local\Temp\ccq0Mx34.s 			page 1


   1              		.cpu cortex-m4
   2              		.eabi_attribute 27, 1
   3              		.eabi_attribute 28, 1
   4              		.eabi_attribute 20, 1
   5              		.eabi_attribute 21, 1
   6              		.eabi_attribute 23, 3
   7              		.eabi_attribute 24, 1
   8              		.eabi_attribute 25, 1
   9              		.eabi_attribute 26, 1
  10              		.eabi_attribute 30, 1
  11              		.eabi_attribute 34, 1
  12              		.eabi_attribute 18, 4
  13              		.file	"main.c"
  14              		.text
  15              	.Ltext0:
  16              		.cfi_sections	.debug_frame
  17              		.section	.text.__io_putchar,"ax",%progbits
  18              		.align	1
  19              		.global	__io_putchar
  20              		.syntax unified
  21              		.thumb
  22              		.thumb_func
  23              		.fpu fpv4-sp-d16
  25              	__io_putchar:
  26              	.LFB126:
  27              		.file 1 "Src/main.c"
   1:Src/main.c    **** /**
   2:Src/main.c    ****   ******************************************************************************
   3:Src/main.c    ****   * @file           : main.c
   4:Src/main.c    ****   * @brief          : Main program body
   5:Src/main.c    ****   ******************************************************************************
   6:Src/main.c    ****   ** This notice applies to any and all portions of this file
   7:Src/main.c    ****   * that are not between comment pairs USER CODE BEGIN and
   8:Src/main.c    ****   * USER CODE END. Other portions of this file, whether 
   9:Src/main.c    ****   * inserted by the user or by software development tools
  10:Src/main.c    ****   * are owned by their respective copyright owners.
  11:Src/main.c    ****   *
  12:Src/main.c    ****   * COPYRIGHT(c) 2018 STMicroelectronics
  13:Src/main.c    ****   *
  14:Src/main.c    ****   * Redistribution and use in source and binary forms, with or without modification,
  15:Src/main.c    ****   * are permitted provided that the following conditions are met:
  16:Src/main.c    ****   *   1. Redistributions of source code must retain the above copyright notice,
  17:Src/main.c    ****   *      this list of conditions and the following disclaimer.
  18:Src/main.c    ****   *   2. Redistributions in binary form must reproduce the above copyright notice,
  19:Src/main.c    ****   *      this list of conditions and the following disclaimer in the documentation
  20:Src/main.c    ****   *      and/or other materials provided with the distribution.
  21:Src/main.c    ****   *   3. Neither the name of STMicroelectronics nor the names of its contributors
  22:Src/main.c    ****   *      may be used to endorse or promote products derived from this software
  23:Src/main.c    ****   *      without specific prior written permission.
  24:Src/main.c    ****   *
  25:Src/main.c    ****   * THIS SOFTWARE IS PROVIDED BY THE COPYRIGHT HOLDERS AND CONTRIBUTORS "AS IS"
  26:Src/main.c    ****   * AND ANY EXPRESS OR IMPLIED WARRANTIES, INCLUDING, BUT NOT LIMITED TO, THE
  27:Src/main.c    ****   * IMPLIED WARRANTIES OF MERCHANTABILITY AND FITNESS FOR A PARTICULAR PURPOSE ARE
  28:Src/main.c    ****   * DISCLAIMED. IN NO EVENT SHALL THE COPYRIGHT HOLDER OR CONTRIBUTORS BE LIABLE
  29:Src/main.c    ****   * FOR ANY DIRECT, INDIRECT, INCIDENTAL, SPECIAL, EXEMPLARY, OR CONSEQUENTIAL
  30:Src/main.c    ****   * DAMAGES (INCLUDING, BUT NOT LIMITED TO, PROCUREMENT OF SUBSTITUTE GOODS OR
  31:Src/main.c    ****   * SERVICES; LOSS OF USE, DATA, OR PROFITS; OR BUSINESS INTERRUPTION) HOWEVER
ARM GAS  C:\Users\kotaro\AppData\Local\Temp\ccq0Mx34.s 			page 2


  32:Src/main.c    ****   * CAUSED AND ON ANY THEORY OF LIABILITY, WHETHER IN CONTRACT, STRICT LIABILITY,
  33:Src/main.c    ****   * OR TORT (INCLUDING NEGLIGENCE OR OTHERWISE) ARISING IN ANY WAY OUT OF THE USE
  34:Src/main.c    ****   * OF THIS SOFTWARE, EVEN IF ADVISED OF THE POSSIBILITY OF SUCH DAMAGE.
  35:Src/main.c    ****   *
  36:Src/main.c    ****   ******************************************************************************
  37:Src/main.c    ****   */
  38:Src/main.c    **** /* Includes ------------------------------------------------------------------*/
  39:Src/main.c    **** #include "main.h"
  40:Src/main.c    **** #include "stm32f4xx_hal.h"
  41:Src/main.c    **** #include "adc.h"
  42:Src/main.c    **** #include "spi.h"
  43:Src/main.c    **** #include "tim.h"
  44:Src/main.c    **** #include "usart.h"
  45:Src/main.c    **** #include "gpio.h"
  46:Src/main.c    **** 
  47:Src/main.c    **** /* USER CODE BEGIN Includes */
  48:Src/main.c    **** #include "interface.h"
  49:Src/main.c    **** #include "other_function.h"
  50:Src/main.c    **** #include "mode.h"
  51:Src/main.c    **** #include "filter.h"
  52:Src/main.c    **** #include "global.h"
  53:Src/main.c    **** /* USER CODE END Includes */
  54:Src/main.c    **** 
  55:Src/main.c    **** /* Private variables ---------------------------------------------------------*/
  56:Src/main.c    **** 
  57:Src/main.c    **** /* USER CODE BEGIN PV */
  58:Src/main.c    **** #ifdef __GNUC__
  59:Src/main.c    **** #define PUTCHAR_PROTOTYPE int __io_putchar(int ch)
  60:Src/main.c    **** #else
  61:Src/main.c    **** #define PUTCHAR_PROTOTYPE int fputc(int ch, FILE *f)
  62:Src/main.c    **** #endif /* __GNUC__ */
  63:Src/main.c    **** void __io_putchar(uint8_t ch) {
  28              		.loc 1 63 0
  29              		.cfi_startproc
  30              		@ args = 0, pretend = 0, frame = 8
  31              		@ frame_needed = 0, uses_anonymous_args = 0
  32              	.LVL0:
  33 0000 00B5     		push	{lr}
  34              	.LCFI0:
  35              		.cfi_def_cfa_offset 4
  36              		.cfi_offset 14, -4
  37 0002 83B0     		sub	sp, sp, #12
  38              	.LCFI1:
  39              		.cfi_def_cfa_offset 16
  40 0004 02A9     		add	r1, sp, #8
  41 0006 01F8010D 		strb	r0, [r1, #-1]!
  64:Src/main.c    ****   HAL_UART_Transmit(&huart3, &ch, 1, 1);
  42              		.loc 1 64 0
  43 000a 0123     		movs	r3, #1
  44 000c 1A46     		mov	r2, r3
  45 000e 0348     		ldr	r0, .L3
  46              	.LVL1:
  47 0010 FFF7FEFF 		bl	HAL_UART_Transmit
  48              	.LVL2:
  65:Src/main.c    **** }
  49              		.loc 1 65 0
  50 0014 03B0     		add	sp, sp, #12
ARM GAS  C:\Users\kotaro\AppData\Local\Temp\ccq0Mx34.s 			page 3


  51              	.LCFI2:
  52              		.cfi_def_cfa_offset 4
  53              		@ sp needed
  54 0016 5DF804FB 		ldr	pc, [sp], #4
  55              	.L4:
  56 001a 00BF     		.align	2
  57              	.L3:
  58 001c 00000000 		.word	huart3
  59              		.cfi_endproc
  60              	.LFE126:
  62              		.section	.text.Init_Main,"ax",%progbits
  63              		.align	1
  64              		.global	Init_Main
  65              		.syntax unified
  66              		.thumb
  67              		.thumb_func
  68              		.fpu fpv4-sp-d16
  70              	Init_Main:
  71              	.LFB129:
  66:Src/main.c    **** /* Private variables ---------------------------------------------------------*/
  67:Src/main.c    **** 
  68:Src/main.c    **** /* USER CODE END PV */
  69:Src/main.c    **** 
  70:Src/main.c    **** /* Private function prototypes -----------------------------------------------*/
  71:Src/main.c    **** void SystemClock_Config(void);
  72:Src/main.c    **** 
  73:Src/main.c    **** /* USER CODE BEGIN PFP */
  74:Src/main.c    **** /* Private function prototypes -----------------------------------------------*/
  75:Src/main.c    **** void Init_Main(void);
  76:Src/main.c    **** /* USER CODE END PFP */
  77:Src/main.c    **** 
  78:Src/main.c    **** /* USER CODE BEGIN 0 */
  79:Src/main.c    **** 
  80:Src/main.c    **** /* USER CODE END 0 */
  81:Src/main.c    **** 
  82:Src/main.c    **** /**
  83:Src/main.c    ****   * @brief  The application entry point.
  84:Src/main.c    ****   *
  85:Src/main.c    ****   * @retval None
  86:Src/main.c    ****   */
  87:Src/main.c    **** int main(void)
  88:Src/main.c    **** {
  89:Src/main.c    ****   /* USER CODE BEGIN 1 */
  90:Src/main.c    ****   
  91:Src/main.c    ****   
  92:Src/main.c    ****   /* USER CODE END 1 */
  93:Src/main.c    **** 
  94:Src/main.c    ****   /* MCU Configuration----------------------------------------------------------*/
  95:Src/main.c    **** 
  96:Src/main.c    ****   /* Reset of all peripherals, Initializes the Flash interface and the Systick. */
  97:Src/main.c    ****   HAL_Init();
  98:Src/main.c    **** 
  99:Src/main.c    ****   /* USER CODE BEGIN Init */
 100:Src/main.c    **** 
 101:Src/main.c    ****   /* USER CODE END Init */
 102:Src/main.c    **** 
 103:Src/main.c    ****   /* Configure the system clock */
ARM GAS  C:\Users\kotaro\AppData\Local\Temp\ccq0Mx34.s 			page 4


 104:Src/main.c    ****   SystemClock_Config();
 105:Src/main.c    **** 
 106:Src/main.c    ****   /* USER CODE BEGIN SysInit */
 107:Src/main.c    **** 
 108:Src/main.c    ****   /* USER CODE END SysInit */
 109:Src/main.c    **** 
 110:Src/main.c    ****   /* Initialize all configured peripherals */
 111:Src/main.c    ****   MX_GPIO_Init();
 112:Src/main.c    ****   MX_USART3_UART_Init();
 113:Src/main.c    ****   MX_TIM4_Init();
 114:Src/main.c    ****   MX_SPI2_Init();
 115:Src/main.c    ****   MX_TIM3_Init();
 116:Src/main.c    ****   MX_TIM2_Init();
 117:Src/main.c    ****   MX_TIM1_Init();
 118:Src/main.c    ****   MX_TIM5_Init();
 119:Src/main.c    ****   MX_ADC1_Init();
 120:Src/main.c    ****   MX_ADC2_Init();
 121:Src/main.c    ****   MX_ADC3_Init();
 122:Src/main.c    ****   /* USER CODE BEGIN 2 */
 123:Src/main.c    ****   Init_Main();
 124:Src/main.c    ****   /* USER CODE END 2 */
 125:Src/main.c    **** 
 126:Src/main.c    ****   /* Infinite loop */
 127:Src/main.c    ****   /* USER CODE BEGIN WHILE */
 128:Src/main.c    ****   while (1)
 129:Src/main.c    ****   {
 130:Src/main.c    **** 
 131:Src/main.c    ****   /* USER CODE END WHILE */
 132:Src/main.c    ****   Mode_mouse(Mode_select());
 133:Src/main.c    ****   /* USER CODE BEGIN 3 */
 134:Src/main.c    **** 
 135:Src/main.c    ****   }
 136:Src/main.c    ****   /* USER CODE END 3 */
 137:Src/main.c    **** 
 138:Src/main.c    **** }
 139:Src/main.c    **** 
 140:Src/main.c    **** /**
 141:Src/main.c    ****   * @brief System Clock Configuration
 142:Src/main.c    ****   * @retval None
 143:Src/main.c    ****   */
 144:Src/main.c    **** void SystemClock_Config(void)
 145:Src/main.c    **** {
 146:Src/main.c    **** 
 147:Src/main.c    ****   RCC_OscInitTypeDef RCC_OscInitStruct;
 148:Src/main.c    ****   RCC_ClkInitTypeDef RCC_ClkInitStruct;
 149:Src/main.c    **** 
 150:Src/main.c    ****     /**Configure the main internal regulator output voltage 
 151:Src/main.c    ****     */
 152:Src/main.c    ****   __HAL_RCC_PWR_CLK_ENABLE();
 153:Src/main.c    **** 
 154:Src/main.c    ****   __HAL_PWR_VOLTAGESCALING_CONFIG(PWR_REGULATOR_VOLTAGE_SCALE1);
 155:Src/main.c    **** 
 156:Src/main.c    ****     /**Initializes the CPU, AHB and APB busses clocks 
 157:Src/main.c    ****     */
 158:Src/main.c    ****   RCC_OscInitStruct.OscillatorType = RCC_OSCILLATORTYPE_HSI;
 159:Src/main.c    ****   RCC_OscInitStruct.HSIState = RCC_HSI_ON;
 160:Src/main.c    ****   RCC_OscInitStruct.HSICalibrationValue = 16;
ARM GAS  C:\Users\kotaro\AppData\Local\Temp\ccq0Mx34.s 			page 5


 161:Src/main.c    ****   RCC_OscInitStruct.PLL.PLLState = RCC_PLL_ON;
 162:Src/main.c    ****   RCC_OscInitStruct.PLL.PLLSource = RCC_PLLSOURCE_HSI;
 163:Src/main.c    ****   RCC_OscInitStruct.PLL.PLLM = 8;
 164:Src/main.c    ****   RCC_OscInitStruct.PLL.PLLN = 80;
 165:Src/main.c    ****   RCC_OscInitStruct.PLL.PLLP = RCC_PLLP_DIV2;
 166:Src/main.c    ****   RCC_OscInitStruct.PLL.PLLQ = 4;
 167:Src/main.c    ****   if (HAL_RCC_OscConfig(&RCC_OscInitStruct) != HAL_OK)
 168:Src/main.c    ****   {
 169:Src/main.c    ****     _Error_Handler(__FILE__, __LINE__);
 170:Src/main.c    ****   }
 171:Src/main.c    **** 
 172:Src/main.c    ****     /**Initializes the CPU, AHB and APB busses clocks 
 173:Src/main.c    ****     */
 174:Src/main.c    ****   RCC_ClkInitStruct.ClockType = RCC_CLOCKTYPE_HCLK|RCC_CLOCKTYPE_SYSCLK
 175:Src/main.c    ****                               |RCC_CLOCKTYPE_PCLK1|RCC_CLOCKTYPE_PCLK2;
 176:Src/main.c    ****   RCC_ClkInitStruct.SYSCLKSource = RCC_SYSCLKSOURCE_PLLCLK;
 177:Src/main.c    ****   RCC_ClkInitStruct.AHBCLKDivider = RCC_SYSCLK_DIV1;
 178:Src/main.c    ****   RCC_ClkInitStruct.APB1CLKDivider = RCC_HCLK_DIV2;
 179:Src/main.c    ****   RCC_ClkInitStruct.APB2CLKDivider = RCC_HCLK_DIV1;
 180:Src/main.c    **** 
 181:Src/main.c    ****   if (HAL_RCC_ClockConfig(&RCC_ClkInitStruct, FLASH_LATENCY_2) != HAL_OK)
 182:Src/main.c    ****   {
 183:Src/main.c    ****     _Error_Handler(__FILE__, __LINE__);
 184:Src/main.c    ****   }
 185:Src/main.c    **** 
 186:Src/main.c    ****     /**Configure the Systick interrupt time 
 187:Src/main.c    ****     */
 188:Src/main.c    ****   HAL_SYSTICK_Config(HAL_RCC_GetHCLKFreq()/1000);
 189:Src/main.c    **** 
 190:Src/main.c    ****     /**Configure the Systick 
 191:Src/main.c    ****     */
 192:Src/main.c    ****   HAL_SYSTICK_CLKSourceConfig(SYSTICK_CLKSOURCE_HCLK);
 193:Src/main.c    **** 
 194:Src/main.c    ****   /* SysTick_IRQn interrupt configuration */
 195:Src/main.c    ****   HAL_NVIC_SetPriority(SysTick_IRQn, 0, 0);
 196:Src/main.c    **** }
 197:Src/main.c    **** 
 198:Src/main.c    **** /* USER CODE BEGIN 4 */
 199:Src/main.c    **** 
 200:Src/main.c    **** /****************************************************************************************
 201:Src/main.c    ****  * outline  : init main(setbuf,tim5,3,4,gyro,battery,flag,ms_count)
 202:Src/main.c    ****  * argument : void
 203:Src/main.c    ****  * return   : void
 204:Src/main.c    **** ********************************************************************************************/
 205:Src/main.c    **** void Init_Main(void){
  72              		.loc 1 205 0
  73              		.cfi_startproc
  74              		@ args = 0, pretend = 0, frame = 0
  75              		@ frame_needed = 0, uses_anonymous_args = 0
  76 0000 08B5     		push	{r3, lr}
  77              	.LCFI3:
  78              		.cfi_def_cfa_offset 8
  79              		.cfi_offset 3, -8
  80              		.cfi_offset 14, -4
 206:Src/main.c    ****   //start check
 207:Src/main.c    ****   Output_Buzzer(HZ_B);
  81              		.loc 1 207 0
ARM GAS  C:\Users\kotaro\AppData\Local\Temp\ccq0Mx34.s 			page 6


  82 0002 5120     		movs	r0, #81
  83 0004 FFF7FEFF 		bl	Output_Buzzer
  84              	.LVL3:
 208:Src/main.c    ****   Output_Buzzer(HZ_A);
  85              		.loc 1 208 0
  86 0008 5B20     		movs	r0, #91
  87 000a FFF7FEFF 		bl	Output_Buzzer
  88              	.LVL4:
 209:Src/main.c    ****   //printf
 210:Src/main.c    ****   setbuf(stdout, NULL);
  89              		.loc 1 210 0
  90 000e 0E4B     		ldr	r3, .L7
  91 0010 1B68     		ldr	r3, [r3]
  92 0012 0021     		movs	r1, #0
  93 0014 9868     		ldr	r0, [r3, #8]
  94 0016 FFF7FEFF 		bl	setbuf
  95              	.LVL5:
 211:Src/main.c    ****   //tim start
 212:Src/main.c    ****   HAL_TIM_Base_Start_IT(&htim5);
  96              		.loc 1 212 0
  97 001a 0C48     		ldr	r0, .L7+4
  98 001c FFF7FEFF 		bl	HAL_TIM_Base_Start_IT
  99              	.LVL6:
 213:Src/main.c    ****   HAL_TIM_Encoder_Start( &htim3, TIM_CHANNEL_ALL );
 100              		.loc 1 213 0
 101 0020 1821     		movs	r1, #24
 102 0022 0B48     		ldr	r0, .L7+8
 103 0024 FFF7FEFF 		bl	HAL_TIM_Encoder_Start
 104              	.LVL7:
 214:Src/main.c    ****   HAL_TIM_Encoder_Start( &htim4, TIM_CHANNEL_ALL );
 105              		.loc 1 214 0
 106 0028 1821     		movs	r1, #24
 107 002a 0A48     		ldr	r0, .L7+12
 108 002c FFF7FEFF 		bl	HAL_TIM_Encoder_Start
 109              	.LVL8:
 215:Src/main.c    ****   //reset
 216:Src/main.c    ****   Reset_Flag();
 110              		.loc 1 216 0
 111 0030 FFF7FEFF 		bl	Reset_Flag
 112              	.LVL9:
 217:Src/main.c    ****   Reset_Value();
 113              		.loc 1 217 0
 114 0034 FFF7FEFF 		bl	Reset_Value
 115              	.LVL10:
 218:Src/main.c    ****   //sensor set
 219:Src/main.c    ****   Input_Sensor();
 116              		.loc 1 219 0
 117 0038 FFF7FEFF 		bl	Input_Sensor
 118              	.LVL11:
 220:Src/main.c    ****   //gyro
 221:Src/main.c    ****   set_mpu6500();
 119              		.loc 1 221 0
 120 003c FFF7FEFF 		bl	set_mpu6500
 121              	.LVL12:
 222:Src/main.c    ****   //battry check
 223:Src/main.c    ****   Batt_check();
 122              		.loc 1 223 0
ARM GAS  C:\Users\kotaro\AppData\Local\Temp\ccq0Mx34.s 			page 7


 123 0040 FFF7FEFF 		bl	Batt_check
 124              	.LVL13:
 224:Src/main.c    **** }
 125              		.loc 1 224 0
 126 0044 08BD     		pop	{r3, pc}
 127              	.L8:
 128 0046 00BF     		.align	2
 129              	.L7:
 130 0048 00000000 		.word	_impure_ptr
 131 004c 00000000 		.word	htim5
 132 0050 00000000 		.word	htim3
 133 0054 00000000 		.word	htim4
 134              		.cfi_endproc
 135              	.LFE129:
 137              		.section	.text._Error_Handler,"ax",%progbits
 138              		.align	1
 139              		.global	_Error_Handler
 140              		.syntax unified
 141              		.thumb
 142              		.thumb_func
 143              		.fpu fpv4-sp-d16
 145              	_Error_Handler:
 146              	.LFB130:
 225:Src/main.c    **** /* USER CODE END 4 */
 226:Src/main.c    **** 
 227:Src/main.c    **** /**
 228:Src/main.c    ****   * @brief  This function is executed in case of error occurrence.
 229:Src/main.c    ****   * @param  file: The file name as string.
 230:Src/main.c    ****   * @param  line: The line in file as a number.
 231:Src/main.c    ****   * @retval None
 232:Src/main.c    ****   */
 233:Src/main.c    **** void _Error_Handler(char *file, int line)
 234:Src/main.c    **** {
 147              		.loc 1 234 0
 148              		.cfi_startproc
 149              		@ Volatile: function does not return.
 150              		@ args = 0, pretend = 0, frame = 0
 151              		@ frame_needed = 0, uses_anonymous_args = 0
 152              		@ link register save eliminated.
 153              	.LVL14:
 154              	.L10:
 155 0000 FEE7     		b	.L10
 156              		.cfi_endproc
 157              	.LFE130:
 159              		.section	.text.SystemClock_Config,"ax",%progbits
 160              		.align	1
 161              		.global	SystemClock_Config
 162              		.syntax unified
 163              		.thumb
 164              		.thumb_func
 165              		.fpu fpv4-sp-d16
 167              	SystemClock_Config:
 168              	.LFB128:
 145:Src/main.c    **** 
 169              		.loc 1 145 0
 170              		.cfi_startproc
 171              		@ args = 0, pretend = 0, frame = 80
ARM GAS  C:\Users\kotaro\AppData\Local\Temp\ccq0Mx34.s 			page 8


 172              		@ frame_needed = 0, uses_anonymous_args = 0
 145:Src/main.c    **** 
 173              		.loc 1 145 0
 174 0000 00B5     		push	{lr}
 175              	.LCFI4:
 176              		.cfi_def_cfa_offset 4
 177              		.cfi_offset 14, -4
 178 0002 95B0     		sub	sp, sp, #84
 179              	.LCFI5:
 180              		.cfi_def_cfa_offset 88
 181              	.LBB2:
 152:Src/main.c    **** 
 182              		.loc 1 152 0
 183 0004 0022     		movs	r2, #0
 184 0006 0192     		str	r2, [sp, #4]
 185 0008 284B     		ldr	r3, .L17
 186 000a 196C     		ldr	r1, [r3, #64]
 187 000c 41F08051 		orr	r1, r1, #268435456
 188 0010 1964     		str	r1, [r3, #64]
 189 0012 1B6C     		ldr	r3, [r3, #64]
 190 0014 03F08053 		and	r3, r3, #268435456
 191 0018 0193     		str	r3, [sp, #4]
 192 001a 019B     		ldr	r3, [sp, #4]
 193              	.LBE2:
 194              	.LBB3:
 154:Src/main.c    **** 
 195              		.loc 1 154 0
 196 001c 0292     		str	r2, [sp, #8]
 197 001e 244B     		ldr	r3, .L17+4
 198 0020 1968     		ldr	r1, [r3]
 199 0022 41F48041 		orr	r1, r1, #16384
 200 0026 1960     		str	r1, [r3]
 201 0028 1B68     		ldr	r3, [r3]
 202 002a 03F48043 		and	r3, r3, #16384
 203 002e 0293     		str	r3, [sp, #8]
 204 0030 029B     		ldr	r3, [sp, #8]
 205              	.LBE3:
 158:Src/main.c    ****   RCC_OscInitStruct.HSIState = RCC_HSI_ON;
 206              		.loc 1 158 0
 207 0032 0223     		movs	r3, #2
 208 0034 0893     		str	r3, [sp, #32]
 159:Src/main.c    ****   RCC_OscInitStruct.HSICalibrationValue = 16;
 209              		.loc 1 159 0
 210 0036 0121     		movs	r1, #1
 211 0038 0B91     		str	r1, [sp, #44]
 160:Src/main.c    ****   RCC_OscInitStruct.PLL.PLLState = RCC_PLL_ON;
 212              		.loc 1 160 0
 213 003a 1021     		movs	r1, #16
 214 003c 0C91     		str	r1, [sp, #48]
 161:Src/main.c    ****   RCC_OscInitStruct.PLL.PLLSource = RCC_PLLSOURCE_HSI;
 215              		.loc 1 161 0
 216 003e 0E93     		str	r3, [sp, #56]
 162:Src/main.c    ****   RCC_OscInitStruct.PLL.PLLM = 8;
 217              		.loc 1 162 0
 218 0040 0F92     		str	r2, [sp, #60]
 163:Src/main.c    ****   RCC_OscInitStruct.PLL.PLLN = 80;
 219              		.loc 1 163 0
ARM GAS  C:\Users\kotaro\AppData\Local\Temp\ccq0Mx34.s 			page 9


 220 0042 0822     		movs	r2, #8
 221 0044 1092     		str	r2, [sp, #64]
 164:Src/main.c    ****   RCC_OscInitStruct.PLL.PLLP = RCC_PLLP_DIV2;
 222              		.loc 1 164 0
 223 0046 5022     		movs	r2, #80
 224 0048 1192     		str	r2, [sp, #68]
 165:Src/main.c    ****   RCC_OscInitStruct.PLL.PLLQ = 4;
 225              		.loc 1 165 0
 226 004a 1293     		str	r3, [sp, #72]
 166:Src/main.c    ****   if (HAL_RCC_OscConfig(&RCC_OscInitStruct) != HAL_OK)
 227              		.loc 1 166 0
 228 004c 0423     		movs	r3, #4
 229 004e 1393     		str	r3, [sp, #76]
 167:Src/main.c    ****   {
 230              		.loc 1 167 0
 231 0050 08A8     		add	r0, sp, #32
 232 0052 FFF7FEFF 		bl	HAL_RCC_OscConfig
 233              	.LVL15:
 234 0056 08BB     		cbnz	r0, .L15
 174:Src/main.c    ****                               |RCC_CLOCKTYPE_PCLK1|RCC_CLOCKTYPE_PCLK2;
 235              		.loc 1 174 0
 236 0058 0F23     		movs	r3, #15
 237 005a 0393     		str	r3, [sp, #12]
 176:Src/main.c    ****   RCC_ClkInitStruct.AHBCLKDivider = RCC_SYSCLK_DIV1;
 238              		.loc 1 176 0
 239 005c 0221     		movs	r1, #2
 240 005e 0491     		str	r1, [sp, #16]
 177:Src/main.c    ****   RCC_ClkInitStruct.APB1CLKDivider = RCC_HCLK_DIV2;
 241              		.loc 1 177 0
 242 0060 0023     		movs	r3, #0
 243 0062 0593     		str	r3, [sp, #20]
 178:Src/main.c    ****   RCC_ClkInitStruct.APB2CLKDivider = RCC_HCLK_DIV1;
 244              		.loc 1 178 0
 245 0064 4FF48052 		mov	r2, #4096
 246 0068 0692     		str	r2, [sp, #24]
 179:Src/main.c    **** 
 247              		.loc 1 179 0
 248 006a 0793     		str	r3, [sp, #28]
 181:Src/main.c    ****   {
 249              		.loc 1 181 0
 250 006c 03A8     		add	r0, sp, #12
 251 006e FFF7FEFF 		bl	HAL_RCC_ClockConfig
 252              	.LVL16:
 253 0072 B8B9     		cbnz	r0, .L16
 188:Src/main.c    **** 
 254              		.loc 1 188 0
 255 0074 FFF7FEFF 		bl	HAL_RCC_GetHCLKFreq
 256              	.LVL17:
 257 0078 0E4B     		ldr	r3, .L17+8
 258 007a A3FB0030 		umull	r3, r0, r3, r0
 259 007e 8009     		lsrs	r0, r0, #6
 260 0080 FFF7FEFF 		bl	HAL_SYSTICK_Config
 261              	.LVL18:
 192:Src/main.c    **** 
 262              		.loc 1 192 0
 263 0084 0420     		movs	r0, #4
 264 0086 FFF7FEFF 		bl	HAL_SYSTICK_CLKSourceConfig
ARM GAS  C:\Users\kotaro\AppData\Local\Temp\ccq0Mx34.s 			page 10


 265              	.LVL19:
 195:Src/main.c    **** }
 266              		.loc 1 195 0
 267 008a 0022     		movs	r2, #0
 268 008c 1146     		mov	r1, r2
 269 008e 4FF0FF30 		mov	r0, #-1
 270 0092 FFF7FEFF 		bl	HAL_NVIC_SetPriority
 271              	.LVL20:
 196:Src/main.c    **** 
 272              		.loc 1 196 0
 273 0096 15B0     		add	sp, sp, #84
 274              	.LCFI6:
 275              		.cfi_remember_state
 276              		.cfi_def_cfa_offset 4
 277              		@ sp needed
 278 0098 5DF804FB 		ldr	pc, [sp], #4
 279              	.L15:
 280              	.LCFI7:
 281              		.cfi_restore_state
 169:Src/main.c    ****   }
 282              		.loc 1 169 0
 283 009c A921     		movs	r1, #169
 284 009e 0648     		ldr	r0, .L17+12
 285 00a0 FFF7FEFF 		bl	_Error_Handler
 286              	.LVL21:
 287              	.L16:
 183:Src/main.c    ****   }
 288              		.loc 1 183 0
 289 00a4 B721     		movs	r1, #183
 290 00a6 0448     		ldr	r0, .L17+12
 291 00a8 FFF7FEFF 		bl	_Error_Handler
 292              	.LVL22:
 293              	.L18:
 294              		.align	2
 295              	.L17:
 296 00ac 00380240 		.word	1073887232
 297 00b0 00700040 		.word	1073770496
 298 00b4 D34D6210 		.word	274877907
 299 00b8 00000000 		.word	.LC0
 300              		.cfi_endproc
 301              	.LFE128:
 303              		.section	.text.main,"ax",%progbits
 304              		.align	1
 305              		.global	main
 306              		.syntax unified
 307              		.thumb
 308              		.thumb_func
 309              		.fpu fpv4-sp-d16
 311              	main:
 312              	.LFB127:
  88:Src/main.c    ****   /* USER CODE BEGIN 1 */
 313              		.loc 1 88 0
 314              		.cfi_startproc
 315              		@ Volatile: function does not return.
 316              		@ args = 0, pretend = 0, frame = 0
 317              		@ frame_needed = 0, uses_anonymous_args = 0
 318 0000 08B5     		push	{r3, lr}
ARM GAS  C:\Users\kotaro\AppData\Local\Temp\ccq0Mx34.s 			page 11


 319              	.LCFI8:
 320              		.cfi_def_cfa_offset 8
 321              		.cfi_offset 3, -8
 322              		.cfi_offset 14, -4
  97:Src/main.c    **** 
 323              		.loc 1 97 0
 324 0002 FFF7FEFF 		bl	HAL_Init
 325              	.LVL23:
 104:Src/main.c    **** 
 326              		.loc 1 104 0
 327 0006 FFF7FEFF 		bl	SystemClock_Config
 328              	.LVL24:
 111:Src/main.c    ****   MX_USART3_UART_Init();
 329              		.loc 1 111 0
 330 000a FFF7FEFF 		bl	MX_GPIO_Init
 331              	.LVL25:
 112:Src/main.c    ****   MX_TIM4_Init();
 332              		.loc 1 112 0
 333 000e FFF7FEFF 		bl	MX_USART3_UART_Init
 334              	.LVL26:
 113:Src/main.c    ****   MX_SPI2_Init();
 335              		.loc 1 113 0
 336 0012 FFF7FEFF 		bl	MX_TIM4_Init
 337              	.LVL27:
 114:Src/main.c    ****   MX_TIM3_Init();
 338              		.loc 1 114 0
 339 0016 FFF7FEFF 		bl	MX_SPI2_Init
 340              	.LVL28:
 115:Src/main.c    ****   MX_TIM2_Init();
 341              		.loc 1 115 0
 342 001a FFF7FEFF 		bl	MX_TIM3_Init
 343              	.LVL29:
 116:Src/main.c    ****   MX_TIM1_Init();
 344              		.loc 1 116 0
 345 001e FFF7FEFF 		bl	MX_TIM2_Init
 346              	.LVL30:
 117:Src/main.c    ****   MX_TIM5_Init();
 347              		.loc 1 117 0
 348 0022 FFF7FEFF 		bl	MX_TIM1_Init
 349              	.LVL31:
 118:Src/main.c    ****   MX_ADC1_Init();
 350              		.loc 1 118 0
 351 0026 FFF7FEFF 		bl	MX_TIM5_Init
 352              	.LVL32:
 119:Src/main.c    ****   MX_ADC2_Init();
 353              		.loc 1 119 0
 354 002a FFF7FEFF 		bl	MX_ADC1_Init
 355              	.LVL33:
 120:Src/main.c    ****   MX_ADC3_Init();
 356              		.loc 1 120 0
 357 002e FFF7FEFF 		bl	MX_ADC2_Init
 358              	.LVL34:
 121:Src/main.c    ****   /* USER CODE BEGIN 2 */
 359              		.loc 1 121 0
 360 0032 FFF7FEFF 		bl	MX_ADC3_Init
 361              	.LVL35:
 123:Src/main.c    ****   /* USER CODE END 2 */
ARM GAS  C:\Users\kotaro\AppData\Local\Temp\ccq0Mx34.s 			page 12


 362              		.loc 1 123 0
 363 0036 FFF7FEFF 		bl	Init_Main
 364              	.LVL36:
 365              	.L20:
 132:Src/main.c    ****   /* USER CODE BEGIN 3 */
 366              		.loc 1 132 0 discriminator 1
 367 003a FFF7FEFF 		bl	Mode_select
 368              	.LVL37:
 369 003e FFF7FEFF 		bl	Mode_mouse
 370              	.LVL38:
 371 0042 FAE7     		b	.L20
 372              		.cfi_endproc
 373              	.LFE127:
 375              		.section	.rodata.SystemClock_Config.str1.4,"aMS",%progbits,1
 376              		.align	2
 377              	.LC0:
 378 0000 5372632F 		.ascii	"Src/main.c\000"
 378      6D61696E 
 378      2E6300
 379              		.text
 380              	.Letext0:
 381              		.file 2 "c:\\program files (x86)\\gnu tools arm embedded\\7 2017-q4-major\\arm-none-eabi\\include\
 382              		.file 3 "c:\\program files (x86)\\gnu tools arm embedded\\7 2017-q4-major\\arm-none-eabi\\include\
 383              		.file 4 "Drivers/CMSIS/Include/core_cm4.h"
 384              		.file 5 "Drivers/CMSIS/Device/ST/STM32F4xx/Include/system_stm32f4xx.h"
 385              		.file 6 "Drivers/CMSIS/Device/ST/STM32F4xx/Include/stm32f405xx.h"
 386              		.file 7 "c:\\program files (x86)\\gnu tools arm embedded\\7 2017-q4-major\\arm-none-eabi\\include\
 387              		.file 8 "c:\\program files (x86)\\gnu tools arm embedded\\7 2017-q4-major\\arm-none-eabi\\include\
 388              		.file 9 "c:\\program files (x86)\\gnu tools arm embedded\\7 2017-q4-major\\lib\\gcc\\arm-none-eabi
 389              		.file 10 "c:\\program files (x86)\\gnu tools arm embedded\\7 2017-q4-major\\arm-none-eabi\\include
 390              		.file 11 "Drivers/STM32F4xx_HAL_Driver/Inc/stm32f4xx_hal_def.h"
 391              		.file 12 "Drivers/STM32F4xx_HAL_Driver/Inc/stm32f4xx_hal_rcc_ex.h"
 392              		.file 13 "Drivers/STM32F4xx_HAL_Driver/Inc/stm32f4xx_hal_rcc.h"
 393              		.file 14 "Drivers/STM32F4xx_HAL_Driver/Inc/stm32f4xx_hal_dma.h"
 394              		.file 15 "Drivers/STM32F4xx_HAL_Driver/Inc/stm32f4xx_hal_adc.h"
 395              		.file 16 "Drivers/STM32F4xx_HAL_Driver/Inc/stm32f4xx_hal_spi.h"
 396              		.file 17 "Drivers/STM32F4xx_HAL_Driver/Inc/stm32f4xx_hal_tim.h"
 397              		.file 18 "Drivers/STM32F4xx_HAL_Driver/Inc/stm32f4xx_hal_uart.h"
 398              		.file 19 "Inc/adc.h"
 399              		.file 20 "Inc/spi.h"
 400              		.file 21 "Inc/tim.h"
 401              		.file 22 "Inc/usart.h"
 402              		.file 23 "Inc/global.h"
 403              		.file 24 "Inc/interface.h"
 404              		.file 25 "c:\\program files (x86)\\gnu tools arm embedded\\7 2017-q4-major\\arm-none-eabi\\include
 405              		.file 26 "Inc/other_function.h"
 406              		.file 27 "Inc/filter.h"
 407              		.file 28 "Drivers/STM32F4xx_HAL_Driver/Inc/stm32f4xx_hal_cortex.h"
 408              		.file 29 "Drivers/STM32F4xx_HAL_Driver/Inc/stm32f4xx_hal.h"
 409              		.file 30 "Inc/gpio.h"
 410              		.file 31 "Inc/mode.h"
ARM GAS  C:\Users\kotaro\AppData\Local\Temp\ccq0Mx34.s 			page 13


DEFINED SYMBOLS
                            *ABS*:00000000 main.c
C:\Users\kotaro\AppData\Local\Temp\ccq0Mx34.s:18     .text.__io_putchar:00000000 $t
C:\Users\kotaro\AppData\Local\Temp\ccq0Mx34.s:25     .text.__io_putchar:00000000 __io_putchar
C:\Users\kotaro\AppData\Local\Temp\ccq0Mx34.s:58     .text.__io_putchar:0000001c $d
C:\Users\kotaro\AppData\Local\Temp\ccq0Mx34.s:63     .text.Init_Main:00000000 $t
C:\Users\kotaro\AppData\Local\Temp\ccq0Mx34.s:70     .text.Init_Main:00000000 Init_Main
C:\Users\kotaro\AppData\Local\Temp\ccq0Mx34.s:130    .text.Init_Main:00000048 $d
C:\Users\kotaro\AppData\Local\Temp\ccq0Mx34.s:138    .text._Error_Handler:00000000 $t
C:\Users\kotaro\AppData\Local\Temp\ccq0Mx34.s:145    .text._Error_Handler:00000000 _Error_Handler
C:\Users\kotaro\AppData\Local\Temp\ccq0Mx34.s:160    .text.SystemClock_Config:00000000 $t
C:\Users\kotaro\AppData\Local\Temp\ccq0Mx34.s:167    .text.SystemClock_Config:00000000 SystemClock_Config
C:\Users\kotaro\AppData\Local\Temp\ccq0Mx34.s:296    .text.SystemClock_Config:000000ac $d
C:\Users\kotaro\AppData\Local\Temp\ccq0Mx34.s:304    .text.main:00000000 $t
C:\Users\kotaro\AppData\Local\Temp\ccq0Mx34.s:311    .text.main:00000000 main
C:\Users\kotaro\AppData\Local\Temp\ccq0Mx34.s:376    .rodata.SystemClock_Config.str1.4:00000000 $d

UNDEFINED SYMBOLS
HAL_UART_Transmit
huart3
Output_Buzzer
setbuf
HAL_TIM_Base_Start_IT
HAL_TIM_Encoder_Start
Reset_Flag
Reset_Value
Input_Sensor
set_mpu6500
Batt_check
_impure_ptr
htim5
htim3
htim4
HAL_RCC_OscConfig
HAL_RCC_ClockConfig
HAL_RCC_GetHCLKFreq
HAL_SYSTICK_Config
HAL_SYSTICK_CLKSourceConfig
HAL_NVIC_SetPriority
HAL_Init
MX_GPIO_Init
MX_USART3_UART_Init
MX_TIM4_Init
MX_SPI2_Init
MX_TIM3_Init
MX_TIM2_Init
MX_TIM1_Init
MX_TIM5_Init
MX_ADC1_Init
MX_ADC2_Init
MX_ADC3_Init
Mode_select
Mode_mouse
