ARM GAS  C:\Users\kotaro\AppData\Local\Temp\ccpGmg3b.s 			page 1


   1              		.cpu cortex-m4
   2              		.eabi_attribute 27, 1
   3              		.eabi_attribute 28, 1
   4              		.eabi_attribute 20, 1
   5              		.eabi_attribute 21, 1
   6              		.eabi_attribute 23, 3
   7              		.eabi_attribute 24, 1
   8              		.eabi_attribute 25, 1
   9              		.eabi_attribute 26, 1
  10              		.eabi_attribute 30, 1
  11              		.eabi_attribute 34, 1
  12              		.eabi_attribute 18, 4
  13              		.file	"mode.c"
  14              		.text
  15              	.Ltext0:
  16              		.cfi_sections	.debug_frame
  17              		.section	.text.Mode_select,"ax",%progbits
  18              		.align	1
  19              		.global	Mode_select
  20              		.syntax unified
  21              		.thumb
  22              		.thumb_func
  23              		.fpu fpv4-sp-d16
  25              	Mode_select:
  26              	.LFB127:
  27              		.file 1 "Src/mode.c"
   1:Src/mode.c    **** #include "mode.h"
   2:Src/mode.c    **** #include "filter.h"
   3:Src/mode.c    **** #include "global.h"
   4:Src/mode.c    **** #include "gpio.h"
   5:Src/mode.c    **** #include "interface.h"
   6:Src/mode.c    **** #include "motion.h"
   7:Src/mode.c    **** #include "spi.h"
   8:Src/mode.c    **** 
   9:Src/mode.c    **** 
  10:Src/mode.c    **** 
  11:Src/mode.c    **** /****************************************************************************************
  12:Src/mode.c    ****  * outline  : wright mode 
  13:Src/mode.c    ****  * argument : mode nomber
  14:Src/mode.c    ****  * return   : void
  15:Src/mode.c    **** ********************************************************************************************/
  16:Src/mode.c    **** void Mode_mouse(int8_t mode){
  17:Src/mode.c    ****     switch(mode){
  18:Src/mode.c    ****         case 0:
  19:Src/mode.c    ****             flag.ir_led = TRUE;
  20:Src/mode.c    ****             while(sen_front.is_wall != TRUE){}
  21:Src/mode.c    ****             flag.ir_led = FALSE;
  22:Src/mode.c    ****             Output_Buzzer(HZ_F);
  23:Src/mode.c    ****             gyro_offset_calc_reset();
  24:Src/mode.c    ****             HAL_Delay(2500);
  25:Src/mode.c    ****             Motion_Start();
  26:Src/mode.c    ****             Motion_Right();
  27:Src/mode.c    ****             Motion_Left();
  28:Src/mode.c    ****             Motion_Straight();
  29:Src/mode.c    ****             Motion_Goal();
  30:Src/mode.c    ****             break;
  31:Src/mode.c    ****         case 1:
ARM GAS  C:\Users\kotaro\AppData\Local\Temp\ccpGmg3b.s 			page 2


  32:Src/mode.c    ****             flag.ir_led = TRUE;
  33:Src/mode.c    ****             while(sen_front.is_wall != TRUE){}
  34:Src/mode.c    ****             flag.ir_led = FALSE;
  35:Src/mode.c    ****             Output_Buzzer(HZ_F);
  36:Src/mode.c    ****             gyro_offset_calc_reset();
  37:Src/mode.c    ****             HAL_Delay(2500);
  38:Src/mode.c    ****             LeftTurn();
  39:Src/mode.c    ****             while(flag.motion_end==FALSE){}
  40:Src/mode.c    ****             break;
  41:Src/mode.c    ****         case 2:
  42:Src/mode.c    ****             flag.ir_led = TRUE;
  43:Src/mode.c    ****             while(sen_front.is_wall != TRUE){}
  44:Src/mode.c    ****             flag.ir_led = FALSE;
  45:Src/mode.c    ****             Output_Buzzer(HZ_F);
  46:Src/mode.c    ****             gyro_offset_calc_reset();
  47:Src/mode.c    ****             HAL_Delay(2500);
  48:Src/mode.c    ****             RightTurn();
  49:Src/mode.c    ****             while(flag.motion_end==FALSE){}
  50:Src/mode.c    ****             break;
  51:Src/mode.c    ****         case 3:
  52:Src/mode.c    ****             flag.ir_led = TRUE;
  53:Src/mode.c    ****             while(sen_front.is_wall != TRUE){}
  54:Src/mode.c    ****             flag.ir_led = FALSE;
  55:Src/mode.c    ****             Output_Buzzer(HZ_F);
  56:Src/mode.c    ****             gyro_offset_calc_reset();
  57:Src/mode.c    ****             HAL_Delay(2500);
  58:Src/mode.c    ****             U_Turn();
  59:Src/mode.c    ****             while(flag.motion_end==FALSE){}
  60:Src/mode.c    ****             break;
  61:Src/mode.c    ****         case 4:
  62:Src/mode.c    ****             
  63:Src/mode.c    ****             break;
  64:Src/mode.c    ****         case 5:
  65:Src/mode.c    ****             
  66:Src/mode.c    ****             break;
  67:Src/mode.c    ****         case 6:
  68:Src/mode.c    ****             Mode_Sensor_Check();
  69:Src/mode.c    ****             break;
  70:Src/mode.c    ****         default:
  71:Src/mode.c    ****             break;
  72:Src/mode.c    ****     }
  73:Src/mode.c    **** }
  74:Src/mode.c    **** 
  75:Src/mode.c    **** 
  76:Src/mode.c    **** /****************************************************************************************
  77:Src/mode.c    ****  * outline  : return mode nomber
  78:Src/mode.c    ****  * argument : void
  79:Src/mode.c    ****  * return   : mode nomber 
  80:Src/mode.c    **** ********************************************************************************************/
  81:Src/mode.c    **** int8_t Mode_select(void){
  28              		.loc 1 81 0
  29              		.cfi_startproc
  30              		@ args = 0, pretend = 0, frame = 0
  31              		@ frame_needed = 0, uses_anonymous_args = 0
  32 0000 10B5     		push	{r4, lr}
  33              	.LCFI0:
  34              		.cfi_def_cfa_offset 8
ARM GAS  C:\Users\kotaro\AppData\Local\Temp\ccpGmg3b.s 			page 3


  35              		.cfi_offset 4, -8
  36              		.cfi_offset 14, -4
  37              	.LVL0:
  82:Src/mode.c    ****     int8_t mode=0;
  38              		.loc 1 82 0
  39 0002 0024     		movs	r4, #0
  40 0004 1FE0     		b	.L7
  41              	.LVL1:
  42              	.L3:
  83:Src/mode.c    ****     while(1){
  84:Src/mode.c    ****         if((int16_t)enc_l.distance > 30 || (int16_t)enc_l.distance < -30){
  85:Src/mode.c    ****             if((int16_t)enc_l.distance > 30){
  86:Src/mode.c    ****                 mode++;
  87:Src/mode.c    ****             }else if((int16_t)enc_l.distance < -30){
  43              		.loc 1 87 0
  44 0006 13F11E0F 		cmn	r3, #30
  45 000a 2DDA     		bge	.L4
  88:Src/mode.c    ****                 mode--;
  46              		.loc 1 88 0
  47 000c 013C     		subs	r4, r4, #1
  48              	.LVL2:
  49 000e 64B2     		sxtb	r4, r4
  50              	.LVL3:
  51 0010 2AE0     		b	.L4
  52              	.L8:
  89:Src/mode.c    ****             }
  90:Src/mode.c    ****             if(mode > 6){
  91:Src/mode.c    ****                 mode = 0;
  53              		.loc 1 91 0
  54 0012 0024     		movs	r4, #0
  55              	.LVL4:
  56              	.L5:
  92:Src/mode.c    ****             }else if(mode < 0){
  93:Src/mode.c    ****                 mode = 6;
  94:Src/mode.c    ****             }
  95:Src/mode.c    ****             enc_l.distance = 0;
  57              		.loc 1 95 0
  58 0014 1C4B     		ldr	r3, .L13
  59 0016 0022     		movs	r2, #0
  60 0018 9A60     		str	r2, [r3, #8]	@ float
  96:Src/mode.c    ****             Output_Buzzer(170-10*mode);
  61              		.loc 1 96 0
  62 001a C4EB4413 		rsb	r3, r4, r4, lsl #5
  63 001e C4EB8303 		rsb	r3, r4, r3, lsl #2
  64 0022 5800     		lsls	r0, r3, #1
  65 0024 C0B2     		uxtb	r0, r0
  66 0026 5638     		subs	r0, r0, #86
  67 0028 00F0FE00 		and	r0, r0, #254
  68 002c FFF7FEFF 		bl	Output_Buzzer
  69              	.LVL5:
  70              	.L2:
  97:Src/mode.c    ****         }
  98:Src/mode.c    ****         if(Push()==ON){
  71              		.loc 1 98 0
  72 0030 FFF7FEFF 		bl	Push
  73              	.LVL6:
  74 0034 0128     		cmp	r0, #1
ARM GAS  C:\Users\kotaro\AppData\Local\Temp\ccpGmg3b.s 			page 4


  75 0036 1DD0     		beq	.L11
  99:Src/mode.c    ****             Output_Buzzer(HZ_C_H);
 100:Src/mode.c    ****             HAL_Delay(500);
 101:Src/mode.c    ****             break;
 102:Src/mode.c    ****         }
 103:Src/mode.c    ****         LED_Control(mode);
  76              		.loc 1 103 0
  77 0038 E0B2     		uxtb	r0, r4
  78 003a FFF7FEFF 		bl	LED_Control
  79              	.LVL7:
 104:Src/mode.c    ****         printf("%d\r",mode);
  80              		.loc 1 104 0
  81 003e 2146     		mov	r1, r4
  82 0040 1248     		ldr	r0, .L13+4
  83 0042 FFF7FEFF 		bl	printf
  84              	.LVL8:
  85              	.L7:
  84:Src/mode.c    ****             if((int16_t)enc_l.distance > 30){
  86              		.loc 1 84 0
  87 0046 104B     		ldr	r3, .L13
  88 0048 D3ED027A 		vldr.32	s15, [r3, #8]
  89 004c FDEEE77A 		vcvt.s32.f32	s15, s15
  90 0050 17EE903A 		vmov	r3, s15	@ int
  91 0054 1BB2     		sxth	r3, r3
  92 0056 03F11E02 		add	r2, r3, #30
  93 005a 92B2     		uxth	r2, r2
  94 005c 3C2A     		cmp	r2, #60
  95 005e E7D9     		bls	.L2
  85:Src/mode.c    ****                 mode++;
  96              		.loc 1 85 0
  97 0060 1E2B     		cmp	r3, #30
  98 0062 D0DD     		ble	.L3
  86:Src/mode.c    ****             }else if((int16_t)enc_l.distance < -30){
  99              		.loc 1 86 0
 100 0064 0134     		adds	r4, r4, #1
 101              	.LVL9:
 102 0066 64B2     		sxtb	r4, r4
 103              	.LVL10:
 104              	.L4:
  90:Src/mode.c    ****                 mode = 0;
 105              		.loc 1 90 0
 106 0068 062C     		cmp	r4, #6
 107 006a D2DC     		bgt	.L8
  92:Src/mode.c    ****                 mode = 6;
 108              		.loc 1 92 0
 109 006c 002C     		cmp	r4, #0
 110 006e D1DA     		bge	.L5
  93:Src/mode.c    ****             }
 111              		.loc 1 93 0
 112 0070 0624     		movs	r4, #6
 113              	.LVL11:
 114 0072 CFE7     		b	.L5
 115              	.LVL12:
 116              	.L11:
  99:Src/mode.c    ****             HAL_Delay(500);
 117              		.loc 1 99 0
 118 0074 4C20     		movs	r0, #76
ARM GAS  C:\Users\kotaro\AppData\Local\Temp\ccpGmg3b.s 			page 5


 119 0076 FFF7FEFF 		bl	Output_Buzzer
 120              	.LVL13:
 100:Src/mode.c    ****             break;
 121              		.loc 1 100 0
 122 007a 4FF4FA70 		mov	r0, #500
 123 007e FFF7FEFF 		bl	HAL_Delay
 124              	.LVL14:
 105:Src/mode.c    ****     }
 106:Src/mode.c    ****     return mode;
 107:Src/mode.c    **** }
 125              		.loc 1 107 0
 126 0082 2046     		mov	r0, r4
 127 0084 10BD     		pop	{r4, pc}
 128              	.LVL15:
 129              	.L14:
 130 0086 00BF     		.align	2
 131              	.L13:
 132 0088 00000000 		.word	enc_l
 133 008c 00000000 		.word	.LC0
 134              		.cfi_endproc
 135              	.LFE127:
 137              		.section	.text.Mode_Sensor_Check,"ax",%progbits
 138              		.align	1
 139              		.global	Mode_Sensor_Check
 140              		.syntax unified
 141              		.thumb
 142              		.thumb_func
 143              		.fpu fpv4-sp-d16
 145              	Mode_Sensor_Check:
 146              	.LFB128:
 108:Src/mode.c    **** 
 109:Src/mode.c    **** 
 110:Src/mode.c    **** void Mode_Sensor_Check(void){
 147              		.loc 1 110 0
 148              		.cfi_startproc
 149              		@ args = 0, pretend = 0, frame = 0
 150              		@ frame_needed = 0, uses_anonymous_args = 0
 151 0000 10B5     		push	{r4, lr}
 152              	.LCFI1:
 153              		.cfi_def_cfa_offset 8
 154              		.cfi_offset 4, -8
 155              		.cfi_offset 14, -4
 111:Src/mode.c    ****     flag.ir_led = TRUE;
 156              		.loc 1 111 0
 157 0002 2C4B     		ldr	r3, .L28
 158 0004 0122     		movs	r2, #1
 159 0006 1A70     		strb	r2, [r3]
 160 0008 26E0     		b	.L22
 161              	.L25:
 112:Src/mode.c    ****     while(1){
 113:Src/mode.c    ****         if(sen_r.is_wall==TRUE){
 114:Src/mode.c    ****             HAL_GPIO_WritePin(led0_GPIO_Port,led0_Pin,GPIO_PIN_RESET);
 162              		.loc 1 114 0
 163 000a 0022     		movs	r2, #0
 164 000c 4FF40051 		mov	r1, #8192
 165 0010 2948     		ldr	r0, .L28+4
 166 0012 FFF7FEFF 		bl	HAL_GPIO_WritePin
ARM GAS  C:\Users\kotaro\AppData\Local\Temp\ccpGmg3b.s 			page 6


 167              	.LVL16:
 168 0016 29E0     		b	.L17
 169              	.L26:
 115:Src/mode.c    ****         }else{
 116:Src/mode.c    ****             HAL_GPIO_WritePin(led0_GPIO_Port,led0_Pin,GPIO_PIN_SET);
 117:Src/mode.c    ****         }
 118:Src/mode.c    ****         if(sen_l.is_wall==TRUE){
 119:Src/mode.c    ****             HAL_GPIO_WritePin(led1_GPIO_Port,led1_Pin,GPIO_PIN_RESET);
 170              		.loc 1 119 0
 171 0018 0022     		movs	r2, #0
 172 001a 4FF48041 		mov	r1, #16384
 173 001e 2648     		ldr	r0, .L28+4
 174 0020 FFF7FEFF 		bl	HAL_GPIO_WritePin
 175              	.LVL17:
 176 0024 2CE0     		b	.L19
 177              	.L27:
 120:Src/mode.c    ****         }else{
 121:Src/mode.c    ****             HAL_GPIO_WritePin(led1_GPIO_Port,led1_Pin,GPIO_PIN_SET);
 122:Src/mode.c    ****         }
 123:Src/mode.c    ****         if(sen_front.is_wall==TRUE){
 124:Src/mode.c    ****             HAL_GPIO_WritePin(led3_GPIO_Port,led3_Pin,GPIO_PIN_RESET);
 178              		.loc 1 124 0
 179 0026 244C     		ldr	r4, .L28+4
 180 0028 0022     		movs	r2, #0
 181 002a 4FF48071 		mov	r1, #256
 182 002e 2046     		mov	r0, r4
 183 0030 FFF7FEFF 		bl	HAL_GPIO_WritePin
 184              	.LVL18:
 125:Src/mode.c    ****             HAL_GPIO_WritePin(led2_GPIO_Port,led2_Pin,GPIO_PIN_RESET);
 185              		.loc 1 125 0
 186 0034 0022     		movs	r2, #0
 187 0036 8021     		movs	r1, #128
 188 0038 2046     		mov	r0, r4
 189 003a FFF7FEFF 		bl	HAL_GPIO_WritePin
 190              	.LVL19:
 191              	.L21:
 126:Src/mode.c    ****         }else{
 127:Src/mode.c    ****             HAL_GPIO_WritePin(led3_GPIO_Port,led3_Pin,GPIO_PIN_SET);
 128:Src/mode.c    ****             HAL_GPIO_WritePin(led2_GPIO_Port,led2_Pin,GPIO_PIN_SET);
 129:Src/mode.c    ****         }
 130:Src/mode.c    ****         printf("l:%d f:%d r:%d \r",sen_l.adc,sen_front.adc,sen_r.adc);
 192              		.loc 1 130 0
 193 003e 1F4B     		ldr	r3, .L28+8
 194 0040 9B88     		ldrh	r3, [r3, #4]
 195 0042 1F4A     		ldr	r2, .L28+12
 196 0044 9288     		ldrh	r2, [r2, #4]
 197 0046 1F49     		ldr	r1, .L28+16
 198 0048 8988     		ldrh	r1, [r1, #4]
 199 004a 1F48     		ldr	r0, .L28+20
 200 004c FFF7FEFF 		bl	printf
 201              	.LVL20:
 131:Src/mode.c    **** 
 132:Src/mode.c    ****         if(Push()==ON){
 202              		.loc 1 132 0
 203 0050 FFF7FEFF 		bl	Push
 204              	.LVL21:
 205 0054 0128     		cmp	r0, #1
ARM GAS  C:\Users\kotaro\AppData\Local\Temp\ccpGmg3b.s 			page 7


 206 0056 24D0     		beq	.L24
 207              	.L22:
 113:Src/mode.c    ****             HAL_GPIO_WritePin(led0_GPIO_Port,led0_Pin,GPIO_PIN_RESET);
 208              		.loc 1 113 0
 209 0058 184B     		ldr	r3, .L28+8
 210 005a 9B7A     		ldrb	r3, [r3, #10]	@ zero_extendqisi2
 211 005c 012B     		cmp	r3, #1
 212 005e D4D0     		beq	.L25
 116:Src/mode.c    ****         }
 213              		.loc 1 116 0
 214 0060 0122     		movs	r2, #1
 215 0062 4FF40051 		mov	r1, #8192
 216 0066 1448     		ldr	r0, .L28+4
 217 0068 FFF7FEFF 		bl	HAL_GPIO_WritePin
 218              	.LVL22:
 219              	.L17:
 118:Src/mode.c    ****             HAL_GPIO_WritePin(led1_GPIO_Port,led1_Pin,GPIO_PIN_RESET);
 220              		.loc 1 118 0
 221 006c 154B     		ldr	r3, .L28+16
 222 006e 9B7A     		ldrb	r3, [r3, #10]	@ zero_extendqisi2
 223 0070 012B     		cmp	r3, #1
 224 0072 D1D0     		beq	.L26
 121:Src/mode.c    ****         }
 225              		.loc 1 121 0
 226 0074 0122     		movs	r2, #1
 227 0076 4FF48041 		mov	r1, #16384
 228 007a 0F48     		ldr	r0, .L28+4
 229 007c FFF7FEFF 		bl	HAL_GPIO_WritePin
 230              	.LVL23:
 231              	.L19:
 123:Src/mode.c    ****             HAL_GPIO_WritePin(led3_GPIO_Port,led3_Pin,GPIO_PIN_RESET);
 232              		.loc 1 123 0
 233 0080 0F4B     		ldr	r3, .L28+12
 234 0082 9B7A     		ldrb	r3, [r3, #10]	@ zero_extendqisi2
 235 0084 012B     		cmp	r3, #1
 236 0086 CED0     		beq	.L27
 127:Src/mode.c    ****             HAL_GPIO_WritePin(led2_GPIO_Port,led2_Pin,GPIO_PIN_SET);
 237              		.loc 1 127 0
 238 0088 0B4C     		ldr	r4, .L28+4
 239 008a 0122     		movs	r2, #1
 240 008c 4FF48071 		mov	r1, #256
 241 0090 2046     		mov	r0, r4
 242 0092 FFF7FEFF 		bl	HAL_GPIO_WritePin
 243              	.LVL24:
 128:Src/mode.c    ****         }
 244              		.loc 1 128 0
 245 0096 0122     		movs	r2, #1
 246 0098 8021     		movs	r1, #128
 247 009a 2046     		mov	r0, r4
 248 009c FFF7FEFF 		bl	HAL_GPIO_WritePin
 249              	.LVL25:
 250 00a0 CDE7     		b	.L21
 251              	.L24:
 133:Src/mode.c    ****             Output_Buzzer(HZ_C_H);
 252              		.loc 1 133 0
 253 00a2 4C20     		movs	r0, #76
 254 00a4 FFF7FEFF 		bl	Output_Buzzer
ARM GAS  C:\Users\kotaro\AppData\Local\Temp\ccpGmg3b.s 			page 8


 255              	.LVL26:
 134:Src/mode.c    ****             HAL_Delay(500);
 256              		.loc 1 134 0
 257 00a8 4FF4FA70 		mov	r0, #500
 258 00ac FFF7FEFF 		bl	HAL_Delay
 259              	.LVL27:
 135:Src/mode.c    ****             break;
 136:Src/mode.c    ****         }
 137:Src/mode.c    ****     }
 138:Src/mode.c    **** }...
 260              		.loc 1 138 0
 261 00b0 10BD     		pop	{r4, pc}
 262              	.L29:
 263 00b2 00BF     		.align	2
 264              	.L28:
 265 00b4 00000000 		.word	flag
 266 00b8 00080240 		.word	1073874944
 267 00bc 00000000 		.word	sen_r
 268 00c0 00000000 		.word	sen_front
 269 00c4 00000000 		.word	sen_l
 270 00c8 00000000 		.word	.LC1
 271              		.cfi_endproc
 272              	.LFE128:
 274              		.section	.text.Mode_mouse,"ax",%progbits
 275              		.align	1
 276              		.global	Mode_mouse
 277              		.syntax unified
 278              		.thumb
 279              		.thumb_func
 280              		.fpu fpv4-sp-d16
 282              	Mode_mouse:
 283              	.LFB126:
  16:Src/mode.c    **** void Mode_mouse(int8_t mode){
 284              		.loc 1 16 0
 285              		.cfi_startproc
 286              		@ args = 0, pretend = 0, frame = 0
 287              		@ frame_needed = 0, uses_anonymous_args = 0
 288              	.LVL28:
 289 0000 08B5     		push	{r3, lr}
 290              	.LCFI2:
 291              		.cfi_def_cfa_offset 8
 292              		.cfi_offset 3, -8
 293              		.cfi_offset 14, -4
  17:Src/mode.c    ****     switch(mode){
 294              		.loc 1 17 0
 295 0002 0628     		cmp	r0, #6
 296 0004 22D8     		bhi	.L30
 297 0006 DFE800F0 		tbb	[pc, r0]
 298              	.L33:
 299 000a 04       		.byte	(.L32-.L33)/2
 300 000b 22       		.byte	(.L34-.L33)/2
 301 000c 3C       		.byte	(.L35-.L33)/2
 302 000d 56       		.byte	(.L36-.L33)/2
 303 000e 21       		.byte	(.L30-.L33)/2
 304 000f 21       		.byte	(.L30-.L33)/2
 305 0010 70       		.byte	(.L37-.L33)/2
 306 0011 00       		.p2align 1
ARM GAS  C:\Users\kotaro\AppData\Local\Temp\ccpGmg3b.s 			page 9


 307              	.L32:
  19:Src/mode.c    ****             flag.ir_led = TRUE;
 308              		.loc 1 19 0
 309 0012 374B     		ldr	r3, .L46
 310 0014 0122     		movs	r2, #1
 311 0016 1A70     		strb	r2, [r3]
 312              	.L38:
  20:Src/mode.c    ****             while(sen_front.is_wall != TRUE){}
 313              		.loc 1 20 0 discriminator 1
 314 0018 364B     		ldr	r3, .L46+4
 315 001a 9B7A     		ldrb	r3, [r3, #10]	@ zero_extendqisi2
 316 001c 012B     		cmp	r3, #1
 317 001e FBD1     		bne	.L38
  21:Src/mode.c    ****             flag.ir_led = FALSE;
 318              		.loc 1 21 0
 319 0020 334B     		ldr	r3, .L46
 320 0022 0022     		movs	r2, #0
 321 0024 1A70     		strb	r2, [r3]
  22:Src/mode.c    ****             Output_Buzzer(HZ_F);
 322              		.loc 1 22 0
 323 0026 7220     		movs	r0, #114
 324              	.LVL29:
 325 0028 FFF7FEFF 		bl	Output_Buzzer
 326              	.LVL30:
  23:Src/mode.c    ****             gyro_offset_calc_reset();
 327              		.loc 1 23 0
 328 002c FFF7FEFF 		bl	gyro_offset_calc_reset
 329              	.LVL31:
  24:Src/mode.c    ****             HAL_Delay(2500);
 330              		.loc 1 24 0
 331 0030 40F6C410 		movw	r0, #2500
 332 0034 FFF7FEFF 		bl	HAL_Delay
 333              	.LVL32:
  25:Src/mode.c    ****             Motion_Start();
 334              		.loc 1 25 0
 335 0038 FFF7FEFF 		bl	Motion_Start
 336              	.LVL33:
  26:Src/mode.c    ****             Motion_Right();
 337              		.loc 1 26 0
 338 003c FFF7FEFF 		bl	Motion_Right
 339              	.LVL34:
  27:Src/mode.c    ****             Motion_Left();
 340              		.loc 1 27 0
 341 0040 FFF7FEFF 		bl	Motion_Left
 342              	.LVL35:
  28:Src/mode.c    ****             Motion_Straight();
 343              		.loc 1 28 0
 344 0044 FFF7FEFF 		bl	Motion_Straight
 345              	.LVL36:
  29:Src/mode.c    ****             Motion_Goal();
 346              		.loc 1 29 0
 347 0048 FFF7FEFF 		bl	Motion_Goal
 348              	.LVL37:
 349              	.L30:
  73:Src/mode.c    **** }
 350              		.loc 1 73 0
 351 004c 08BD     		pop	{r3, pc}
ARM GAS  C:\Users\kotaro\AppData\Local\Temp\ccpGmg3b.s 			page 10


 352              	.LVL38:
 353              	.L34:
  32:Src/mode.c    ****             flag.ir_led = TRUE;
 354              		.loc 1 32 0
 355 004e 284B     		ldr	r3, .L46
 356 0050 0122     		movs	r2, #1
 357 0052 1A70     		strb	r2, [r3]
 358              	.L39:
  33:Src/mode.c    ****             while(sen_front.is_wall != TRUE){}
 359              		.loc 1 33 0 discriminator 1
 360 0054 274B     		ldr	r3, .L46+4
 361 0056 9B7A     		ldrb	r3, [r3, #10]	@ zero_extendqisi2
 362 0058 012B     		cmp	r3, #1
 363 005a FBD1     		bne	.L39
  34:Src/mode.c    ****             flag.ir_led = FALSE;
 364              		.loc 1 34 0
 365 005c 244B     		ldr	r3, .L46
 366 005e 0022     		movs	r2, #0
 367 0060 1A70     		strb	r2, [r3]
  35:Src/mode.c    ****             Output_Buzzer(HZ_F);
 368              		.loc 1 35 0
 369 0062 7220     		movs	r0, #114
 370              	.LVL39:
 371 0064 FFF7FEFF 		bl	Output_Buzzer
 372              	.LVL40:
  36:Src/mode.c    ****             gyro_offset_calc_reset();
 373              		.loc 1 36 0
 374 0068 FFF7FEFF 		bl	gyro_offset_calc_reset
 375              	.LVL41:
  37:Src/mode.c    ****             HAL_Delay(2500);
 376              		.loc 1 37 0
 377 006c 40F6C410 		movw	r0, #2500
 378 0070 FFF7FEFF 		bl	HAL_Delay
 379              	.LVL42:
  38:Src/mode.c    ****             LeftTurn();
 380              		.loc 1 38 0
 381 0074 FFF7FEFF 		bl	LeftTurn
 382              	.LVL43:
 383              	.L40:
  39:Src/mode.c    ****             while(flag.motion_end==FALSE){}
 384              		.loc 1 39 0 discriminator 1
 385 0078 1D4B     		ldr	r3, .L46
 386 007a 9B78     		ldrb	r3, [r3, #2]	@ zero_extendqisi2
 387 007c 002B     		cmp	r3, #0
 388 007e FBD0     		beq	.L40
 389 0080 E4E7     		b	.L30
 390              	.LVL44:
 391              	.L35:
  42:Src/mode.c    ****             flag.ir_led = TRUE;
 392              		.loc 1 42 0
 393 0082 1B4B     		ldr	r3, .L46
 394 0084 0122     		movs	r2, #1
 395 0086 1A70     		strb	r2, [r3]
 396              	.L41:
  43:Src/mode.c    ****             while(sen_front.is_wall != TRUE){}
 397              		.loc 1 43 0 discriminator 1
 398 0088 1A4B     		ldr	r3, .L46+4
ARM GAS  C:\Users\kotaro\AppData\Local\Temp\ccpGmg3b.s 			page 11


 399 008a 9B7A     		ldrb	r3, [r3, #10]	@ zero_extendqisi2
 400 008c 012B     		cmp	r3, #1
 401 008e FBD1     		bne	.L41
  44:Src/mode.c    ****             flag.ir_led = FALSE;
 402              		.loc 1 44 0
 403 0090 174B     		ldr	r3, .L46
 404 0092 0022     		movs	r2, #0
 405 0094 1A70     		strb	r2, [r3]
  45:Src/mode.c    ****             Output_Buzzer(HZ_F);
 406              		.loc 1 45 0
 407 0096 7220     		movs	r0, #114
 408              	.LVL45:
 409 0098 FFF7FEFF 		bl	Output_Buzzer
 410              	.LVL46:
  46:Src/mode.c    ****             gyro_offset_calc_reset();
 411              		.loc 1 46 0
 412 009c FFF7FEFF 		bl	gyro_offset_calc_reset
 413              	.LVL47:
  47:Src/mode.c    ****             HAL_Delay(2500);
 414              		.loc 1 47 0
 415 00a0 40F6C410 		movw	r0, #2500
 416 00a4 FFF7FEFF 		bl	HAL_Delay
 417              	.LVL48:
  48:Src/mode.c    ****             RightTurn();
 418              		.loc 1 48 0
 419 00a8 FFF7FEFF 		bl	RightTurn
 420              	.LVL49:
 421              	.L42:
  49:Src/mode.c    ****             while(flag.motion_end==FALSE){}
 422              		.loc 1 49 0 discriminator 1
 423 00ac 104B     		ldr	r3, .L46
 424 00ae 9B78     		ldrb	r3, [r3, #2]	@ zero_extendqisi2
 425 00b0 002B     		cmp	r3, #0
 426 00b2 FBD0     		beq	.L42
 427 00b4 CAE7     		b	.L30
 428              	.LVL50:
 429              	.L36:
  52:Src/mode.c    ****             flag.ir_led = TRUE;
 430              		.loc 1 52 0
 431 00b6 0E4B     		ldr	r3, .L46
 432 00b8 0122     		movs	r2, #1
 433 00ba 1A70     		strb	r2, [r3]
 434              	.L43:
  53:Src/mode.c    ****             while(sen_front.is_wall != TRUE){}
 435              		.loc 1 53 0 discriminator 1
 436 00bc 0D4B     		ldr	r3, .L46+4
 437 00be 9B7A     		ldrb	r3, [r3, #10]	@ zero_extendqisi2
 438 00c0 012B     		cmp	r3, #1
 439 00c2 FBD1     		bne	.L43
  54:Src/mode.c    ****             flag.ir_led = FALSE;
 440              		.loc 1 54 0
 441 00c4 0A4B     		ldr	r3, .L46
 442 00c6 0022     		movs	r2, #0
 443 00c8 1A70     		strb	r2, [r3]
  55:Src/mode.c    ****             Output_Buzzer(HZ_F);
 444              		.loc 1 55 0
 445 00ca 7220     		movs	r0, #114
ARM GAS  C:\Users\kotaro\AppData\Local\Temp\ccpGmg3b.s 			page 12


 446              	.LVL51:
 447 00cc FFF7FEFF 		bl	Output_Buzzer
 448              	.LVL52:
  56:Src/mode.c    ****             gyro_offset_calc_reset();
 449              		.loc 1 56 0
 450 00d0 FFF7FEFF 		bl	gyro_offset_calc_reset
 451              	.LVL53:
  57:Src/mode.c    ****             HAL_Delay(2500);
 452              		.loc 1 57 0
 453 00d4 40F6C410 		movw	r0, #2500
 454 00d8 FFF7FEFF 		bl	HAL_Delay
 455              	.LVL54:
  58:Src/mode.c    ****             U_Turn();
 456              		.loc 1 58 0
 457 00dc FFF7FEFF 		bl	U_Turn
 458              	.LVL55:
 459              	.L44:
  59:Src/mode.c    ****             while(flag.motion_end==FALSE){}
 460              		.loc 1 59 0 discriminator 1
 461 00e0 034B     		ldr	r3, .L46
 462 00e2 9B78     		ldrb	r3, [r3, #2]	@ zero_extendqisi2
 463 00e4 002B     		cmp	r3, #0
 464 00e6 FBD0     		beq	.L44
 465 00e8 B0E7     		b	.L30
 466              	.LVL56:
 467              	.L37:
  68:Src/mode.c    ****             Mode_Sensor_Check();
 468              		.loc 1 68 0
 469 00ea FFF7FEFF 		bl	Mode_Sensor_Check
 470              	.LVL57:
  73:Src/mode.c    **** }
 471              		.loc 1 73 0
 472 00ee ADE7     		b	.L30
 473              	.L47:
 474              		.align	2
 475              	.L46:
 476 00f0 00000000 		.word	flag
 477 00f4 00000000 		.word	sen_front
 478              		.cfi_endproc
 479              	.LFE126:
 481              		.section	.rodata.Mode_Sensor_Check.str1.4,"aMS",%progbits,1
 482              		.align	2
 483              	.LC1:
 484 0000 6C3A2564 		.ascii	"l:%d f:%d r:%d \015\000"
 484      20663A25 
 484      6420723A 
 484      2564200D 
 484      00
 485              		.section	.rodata.Mode_select.str1.4,"aMS",%progbits,1
 486              		.align	2
 487              	.LC0:
 488 0000 25640D00 		.ascii	"%d\015\000"
 489              		.text
 490              	.Letext0:
 491              		.file 2 "c:\\program files (x86)\\gnu tools arm embedded\\7 2017-q4-major\\arm-none-eabi\\include\
 492              		.file 3 "c:\\program files (x86)\\gnu tools arm embedded\\7 2017-q4-major\\arm-none-eabi\\include\
 493              		.file 4 "Inc/global.h"
ARM GAS  C:\Users\kotaro\AppData\Local\Temp\ccpGmg3b.s 			page 13


 494              		.file 5 "Drivers/CMSIS/Include/core_cm4.h"
 495              		.file 6 "Drivers/CMSIS/Device/ST/STM32F4xx/Include/system_stm32f4xx.h"
 496              		.file 7 "Drivers/CMSIS/Device/ST/STM32F4xx/Include/stm32f405xx.h"
 497              		.file 8 "c:\\program files (x86)\\gnu tools arm embedded\\7 2017-q4-major\\arm-none-eabi\\include\
 498              		.file 9 "c:\\program files (x86)\\gnu tools arm embedded\\7 2017-q4-major\\arm-none-eabi\\include\
 499              		.file 10 "c:\\program files (x86)\\gnu tools arm embedded\\7 2017-q4-major\\lib\\gcc\\arm-none-eab
 500              		.file 11 "c:\\program files (x86)\\gnu tools arm embedded\\7 2017-q4-major\\arm-none-eabi\\include
 501              		.file 12 "Drivers/STM32F4xx_HAL_Driver/Inc/stm32f4xx_hal_def.h"
 502              		.file 13 "Drivers/STM32F4xx_HAL_Driver/Inc/stm32f4xx_hal_gpio.h"
 503              		.file 14 "Drivers/STM32F4xx_HAL_Driver/Inc/stm32f4xx_hal_dma.h"
 504              		.file 15 "Drivers/STM32F4xx_HAL_Driver/Inc/stm32f4xx_hal_spi.h"
 505              		.file 16 "Inc/spi.h"
 506              		.file 17 "c:\\program files (x86)\\gnu tools arm embedded\\7 2017-q4-major\\arm-none-eabi\\include
 507              		.file 18 "Inc/interface.h"
 508              		.file 19 "Drivers/STM32F4xx_HAL_Driver/Inc/stm32f4xx_hal.h"
 509              		.file 20 "Inc/motion.h"
ARM GAS  C:\Users\kotaro\AppData\Local\Temp\ccpGmg3b.s 			page 14


DEFINED SYMBOLS
                            *ABS*:00000000 mode.c
C:\Users\kotaro\AppData\Local\Temp\ccpGmg3b.s:18     .text.Mode_select:00000000 $t
C:\Users\kotaro\AppData\Local\Temp\ccpGmg3b.s:25     .text.Mode_select:00000000 Mode_select
C:\Users\kotaro\AppData\Local\Temp\ccpGmg3b.s:132    .text.Mode_select:00000088 $d
C:\Users\kotaro\AppData\Local\Temp\ccpGmg3b.s:138    .text.Mode_Sensor_Check:00000000 $t
C:\Users\kotaro\AppData\Local\Temp\ccpGmg3b.s:145    .text.Mode_Sensor_Check:00000000 Mode_Sensor_Check
C:\Users\kotaro\AppData\Local\Temp\ccpGmg3b.s:265    .text.Mode_Sensor_Check:000000b4 $d
C:\Users\kotaro\AppData\Local\Temp\ccpGmg3b.s:275    .text.Mode_mouse:00000000 $t
C:\Users\kotaro\AppData\Local\Temp\ccpGmg3b.s:282    .text.Mode_mouse:00000000 Mode_mouse
C:\Users\kotaro\AppData\Local\Temp\ccpGmg3b.s:299    .text.Mode_mouse:0000000a $d
C:\Users\kotaro\AppData\Local\Temp\ccpGmg3b.s:476    .text.Mode_mouse:000000f0 $d
C:\Users\kotaro\AppData\Local\Temp\ccpGmg3b.s:482    .rodata.Mode_Sensor_Check.str1.4:00000000 $d
C:\Users\kotaro\AppData\Local\Temp\ccpGmg3b.s:486    .rodata.Mode_select.str1.4:00000000 $d
C:\Users\kotaro\AppData\Local\Temp\ccpGmg3b.s:306    .text.Mode_mouse:00000011 $d
C:\Users\kotaro\AppData\Local\Temp\ccpGmg3b.s:306    .text.Mode_mouse:00000012 $t

UNDEFINED SYMBOLS
Output_Buzzer
Push
LED_Control
printf
HAL_Delay
enc_l
HAL_GPIO_WritePin
flag
sen_r
sen_front
sen_l
gyro_offset_calc_reset
Motion_Start
Motion_Right
Motion_Left
Motion_Straight
Motion_Goal
LeftTurn
RightTurn
U_Turn
