ARM GAS  C:\Users\kotaro\AppData\Local\Temp\ccVB0Tf6.s 			page 1


   1              		.cpu cortex-m4
   2              		.eabi_attribute 27, 1
   3              		.eabi_attribute 28, 1
   4              		.eabi_attribute 20, 1
   5              		.eabi_attribute 21, 1
   6              		.eabi_attribute 23, 3
   7              		.eabi_attribute 24, 1
   8              		.eabi_attribute 25, 1
   9              		.eabi_attribute 26, 1
  10              		.eabi_attribute 30, 1
  11              		.eabi_attribute 34, 1
  12              		.eabi_attribute 18, 4
  13              		.file	"tim.c"
  14              		.text
  15              	.Ltext0:
  16              		.cfi_sections	.debug_frame
  17              		.section	.text.MX_TIM3_Init,"ax",%progbits
  18              		.align	1
  19              		.global	MX_TIM3_Init
  20              		.syntax unified
  21              		.thumb
  22              		.thumb_func
  23              		.fpu fpv4-sp-d16
  25              	MX_TIM3_Init:
  26              	.LFB161:
  27              		.file 1 "Src/tim.c"
   1:Src/tim.c     **** /**
   2:Src/tim.c     ****   ******************************************************************************
   3:Src/tim.c     ****   * File Name          : TIM.c
   4:Src/tim.c     ****   * Description        : This file provides code for the configuration
   5:Src/tim.c     ****   *                      of the TIM instances.
   6:Src/tim.c     ****   ******************************************************************************
   7:Src/tim.c     ****   ** This notice applies to any and all portions of this file
   8:Src/tim.c     ****   * that are not between comment pairs USER CODE BEGIN and
   9:Src/tim.c     ****   * USER CODE END. Other portions of this file, whether 
  10:Src/tim.c     ****   * inserted by the user or by software development tools
  11:Src/tim.c     ****   * are owned by their respective copyright owners.
  12:Src/tim.c     ****   *
  13:Src/tim.c     ****   * COPYRIGHT(c) 2018 STMicroelectronics
  14:Src/tim.c     ****   *
  15:Src/tim.c     ****   * Redistribution and use in source and binary forms, with or without modification,
  16:Src/tim.c     ****   * are permitted provided that the following conditions are met:
  17:Src/tim.c     ****   *   1. Redistributions of source code must retain the above copyright notice,
  18:Src/tim.c     ****   *      this list of conditions and the following disclaimer.
  19:Src/tim.c     ****   *   2. Redistributions in binary form must reproduce the above copyright notice,
  20:Src/tim.c     ****   *      this list of conditions and the following disclaimer in the documentation
  21:Src/tim.c     ****   *      and/or other materials provided with the distribution.
  22:Src/tim.c     ****   *   3. Neither the name of STMicroelectronics nor the names of its contributors
  23:Src/tim.c     ****   *      may be used to endorse or promote products derived from this software
  24:Src/tim.c     ****   *      without specific prior written permission.
  25:Src/tim.c     ****   *
  26:Src/tim.c     ****   * THIS SOFTWARE IS PROVIDED BY THE COPYRIGHT HOLDERS AND CONTRIBUTORS "AS IS"
  27:Src/tim.c     ****   * AND ANY EXPRESS OR IMPLIED WARRANTIES, INCLUDING, BUT NOT LIMITED TO, THE
  28:Src/tim.c     ****   * IMPLIED WARRANTIES OF MERCHANTABILITY AND FITNESS FOR A PARTICULAR PURPOSE ARE
  29:Src/tim.c     ****   * DISCLAIMED. IN NO EVENT SHALL THE COPYRIGHT HOLDER OR CONTRIBUTORS BE LIABLE
  30:Src/tim.c     ****   * FOR ANY DIRECT, INDIRECT, INCIDENTAL, SPECIAL, EXEMPLARY, OR CONSEQUENTIAL
  31:Src/tim.c     ****   * DAMAGES (INCLUDING, BUT NOT LIMITED TO, PROCUREMENT OF SUBSTITUTE GOODS OR
ARM GAS  C:\Users\kotaro\AppData\Local\Temp\ccVB0Tf6.s 			page 2


  32:Src/tim.c     ****   * SERVICES; LOSS OF USE, DATA, OR PROFITS; OR BUSINESS INTERRUPTION) HOWEVER
  33:Src/tim.c     ****   * CAUSED AND ON ANY THEORY OF LIABILITY, WHETHER IN CONTRACT, STRICT LIABILITY,
  34:Src/tim.c     ****   * OR TORT (INCLUDING NEGLIGENCE OR OTHERWISE) ARISING IN ANY WAY OUT OF THE USE
  35:Src/tim.c     ****   * OF THIS SOFTWARE, EVEN IF ADVISED OF THE POSSIBILITY OF SUCH DAMAGE.
  36:Src/tim.c     ****   *
  37:Src/tim.c     ****   ******************************************************************************
  38:Src/tim.c     ****   */
  39:Src/tim.c     **** 
  40:Src/tim.c     **** /* Includes ------------------------------------------------------------------*/
  41:Src/tim.c     **** #include "tim.h"
  42:Src/tim.c     **** 
  43:Src/tim.c     **** #include "gpio.h"
  44:Src/tim.c     **** 
  45:Src/tim.c     **** /* USER CODE BEGIN 0 */
  46:Src/tim.c     **** #include "global.h"
  47:Src/tim.c     **** #include "arm_math.h"
  48:Src/tim.c     **** 
  49:Src/tim.c     **** TIM_MasterConfigTypeDef sMasterConfig;
  50:Src/tim.c     **** TIM_OC_InitTypeDef sConfigOC;
  51:Src/tim.c     **** /* USER CODE END 0 */
  52:Src/tim.c     **** 
  53:Src/tim.c     **** TIM_HandleTypeDef htim1;
  54:Src/tim.c     **** TIM_HandleTypeDef htim2;
  55:Src/tim.c     **** TIM_HandleTypeDef htim3;
  56:Src/tim.c     **** TIM_HandleTypeDef htim4;
  57:Src/tim.c     **** TIM_HandleTypeDef htim5;
  58:Src/tim.c     **** 
  59:Src/tim.c     **** /* TIM1 init function */
  60:Src/tim.c     **** void MX_TIM1_Init(void)
  61:Src/tim.c     **** {
  62:Src/tim.c     ****   TIM_MasterConfigTypeDef sMasterConfig;
  63:Src/tim.c     ****   TIM_OC_InitTypeDef sConfigOC;
  64:Src/tim.c     ****   TIM_BreakDeadTimeConfigTypeDef sBreakDeadTimeConfig;
  65:Src/tim.c     **** 
  66:Src/tim.c     ****   htim1.Instance = TIM1;
  67:Src/tim.c     ****   htim1.Init.Prescaler = 1;
  68:Src/tim.c     ****   htim1.Init.CounterMode = TIM_COUNTERMODE_UP;
  69:Src/tim.c     ****   htim1.Init.Period = 799;
  70:Src/tim.c     ****   htim1.Init.ClockDivision = TIM_CLOCKDIVISION_DIV1;
  71:Src/tim.c     ****   htim1.Init.RepetitionCounter = 0;
  72:Src/tim.c     ****   if (HAL_TIM_PWM_Init(&htim1) != HAL_OK)
  73:Src/tim.c     ****   {
  74:Src/tim.c     ****     _Error_Handler(__FILE__, __LINE__);
  75:Src/tim.c     ****   }
  76:Src/tim.c     **** 
  77:Src/tim.c     ****   sMasterConfig.MasterOutputTrigger = TIM_TRGO_RESET;
  78:Src/tim.c     ****   sMasterConfig.MasterSlaveMode = TIM_MASTERSLAVEMODE_DISABLE;
  79:Src/tim.c     ****   if (HAL_TIMEx_MasterConfigSynchronization(&htim1, &sMasterConfig) != HAL_OK)
  80:Src/tim.c     ****   {
  81:Src/tim.c     ****     _Error_Handler(__FILE__, __LINE__);
  82:Src/tim.c     ****   }
  83:Src/tim.c     **** 
  84:Src/tim.c     ****   sConfigOC.OCMode = TIM_OCMODE_PWM1;
  85:Src/tim.c     ****   sConfigOC.Pulse = 0;
  86:Src/tim.c     ****   sConfigOC.OCPolarity = TIM_OCPOLARITY_HIGH;
  87:Src/tim.c     ****   sConfigOC.OCNPolarity = TIM_OCNPOLARITY_HIGH;
  88:Src/tim.c     ****   sConfigOC.OCFastMode = TIM_OCFAST_DISABLE;
ARM GAS  C:\Users\kotaro\AppData\Local\Temp\ccVB0Tf6.s 			page 3


  89:Src/tim.c     ****   sConfigOC.OCIdleState = TIM_OCIDLESTATE_RESET;
  90:Src/tim.c     ****   sConfigOC.OCNIdleState = TIM_OCNIDLESTATE_RESET;
  91:Src/tim.c     ****   if (HAL_TIM_PWM_ConfigChannel(&htim1, &sConfigOC, TIM_CHANNEL_1) != HAL_OK)
  92:Src/tim.c     ****   {
  93:Src/tim.c     ****     _Error_Handler(__FILE__, __LINE__);
  94:Src/tim.c     ****   }
  95:Src/tim.c     **** 
  96:Src/tim.c     ****   if (HAL_TIM_PWM_ConfigChannel(&htim1, &sConfigOC, TIM_CHANNEL_2) != HAL_OK)
  97:Src/tim.c     ****   {
  98:Src/tim.c     ****     _Error_Handler(__FILE__, __LINE__);
  99:Src/tim.c     ****   }
 100:Src/tim.c     **** 
 101:Src/tim.c     ****   if (HAL_TIM_PWM_ConfigChannel(&htim1, &sConfigOC, TIM_CHANNEL_3) != HAL_OK)
 102:Src/tim.c     ****   {
 103:Src/tim.c     ****     _Error_Handler(__FILE__, __LINE__);
 104:Src/tim.c     ****   }
 105:Src/tim.c     **** 
 106:Src/tim.c     ****   if (HAL_TIM_PWM_ConfigChannel(&htim1, &sConfigOC, TIM_CHANNEL_4) != HAL_OK)
 107:Src/tim.c     ****   {
 108:Src/tim.c     ****     _Error_Handler(__FILE__, __LINE__);
 109:Src/tim.c     ****   }
 110:Src/tim.c     **** 
 111:Src/tim.c     ****   sBreakDeadTimeConfig.OffStateRunMode = TIM_OSSR_DISABLE;
 112:Src/tim.c     ****   sBreakDeadTimeConfig.OffStateIDLEMode = TIM_OSSI_DISABLE;
 113:Src/tim.c     ****   sBreakDeadTimeConfig.LockLevel = TIM_LOCKLEVEL_OFF;
 114:Src/tim.c     ****   sBreakDeadTimeConfig.DeadTime = 0;
 115:Src/tim.c     ****   sBreakDeadTimeConfig.BreakState = TIM_BREAK_DISABLE;
 116:Src/tim.c     ****   sBreakDeadTimeConfig.BreakPolarity = TIM_BREAKPOLARITY_HIGH;
 117:Src/tim.c     ****   sBreakDeadTimeConfig.AutomaticOutput = TIM_AUTOMATICOUTPUT_DISABLE;
 118:Src/tim.c     ****   if (HAL_TIMEx_ConfigBreakDeadTime(&htim1, &sBreakDeadTimeConfig) != HAL_OK)
 119:Src/tim.c     ****   {
 120:Src/tim.c     ****     _Error_Handler(__FILE__, __LINE__);
 121:Src/tim.c     ****   }
 122:Src/tim.c     **** 
 123:Src/tim.c     ****   HAL_TIM_MspPostInit(&htim1);
 124:Src/tim.c     **** 
 125:Src/tim.c     **** }
 126:Src/tim.c     **** /* TIM2 init function */
 127:Src/tim.c     **** void MX_TIM2_Init(void)
 128:Src/tim.c     **** {
 129:Src/tim.c     ****   TIM_MasterConfigTypeDef sMasterConfig;
 130:Src/tim.c     ****   TIM_OC_InitTypeDef sConfigOC;
 131:Src/tim.c     **** 
 132:Src/tim.c     ****   htim2.Instance = TIM2;
 133:Src/tim.c     ****   htim2.Init.Prescaler = 9;
 134:Src/tim.c     ****   htim2.Init.CounterMode = TIM_COUNTERMODE_UP;
 135:Src/tim.c     ****   htim2.Init.Period = 999;
 136:Src/tim.c     ****   htim2.Init.ClockDivision = TIM_CLOCKDIVISION_DIV1;
 137:Src/tim.c     ****   if (HAL_TIM_PWM_Init(&htim2) != HAL_OK)
 138:Src/tim.c     ****   {
 139:Src/tim.c     ****     _Error_Handler(__FILE__, __LINE__);
 140:Src/tim.c     ****   }
 141:Src/tim.c     **** 
 142:Src/tim.c     ****   sMasterConfig.MasterOutputTrigger = TIM_TRGO_RESET;
 143:Src/tim.c     ****   sMasterConfig.MasterSlaveMode = TIM_MASTERSLAVEMODE_DISABLE;
 144:Src/tim.c     ****   if (HAL_TIMEx_MasterConfigSynchronization(&htim2, &sMasterConfig) != HAL_OK)
 145:Src/tim.c     ****   {
ARM GAS  C:\Users\kotaro\AppData\Local\Temp\ccVB0Tf6.s 			page 4


 146:Src/tim.c     ****     _Error_Handler(__FILE__, __LINE__);
 147:Src/tim.c     ****   }
 148:Src/tim.c     **** 
 149:Src/tim.c     ****   sConfigOC.OCMode = TIM_OCMODE_PWM1;
 150:Src/tim.c     ****   sConfigOC.Pulse = 0;
 151:Src/tim.c     ****   sConfigOC.OCPolarity = TIM_OCPOLARITY_HIGH;
 152:Src/tim.c     ****   sConfigOC.OCFastMode = TIM_OCFAST_DISABLE;
 153:Src/tim.c     ****   if (HAL_TIM_PWM_ConfigChannel(&htim2, &sConfigOC, TIM_CHANNEL_1) != HAL_OK)
 154:Src/tim.c     ****   {
 155:Src/tim.c     ****     _Error_Handler(__FILE__, __LINE__);
 156:Src/tim.c     ****   }
 157:Src/tim.c     **** 
 158:Src/tim.c     ****   HAL_TIM_MspPostInit(&htim2);
 159:Src/tim.c     **** 
 160:Src/tim.c     **** }
 161:Src/tim.c     **** /* TIM3 init function */
 162:Src/tim.c     **** void MX_TIM3_Init(void)
 163:Src/tim.c     **** {
  28              		.loc 1 163 0
  29              		.cfi_startproc
  30              		@ args = 0, pretend = 0, frame = 48
  31              		@ frame_needed = 0, uses_anonymous_args = 0
  32 0000 00B5     		push	{lr}
  33              	.LCFI0:
  34              		.cfi_def_cfa_offset 4
  35              		.cfi_offset 14, -4
  36 0002 8DB0     		sub	sp, sp, #52
  37              	.LCFI1:
  38              		.cfi_def_cfa_offset 56
 164:Src/tim.c     ****   TIM_Encoder_InitTypeDef sConfig;
 165:Src/tim.c     ****   TIM_MasterConfigTypeDef sMasterConfig;
 166:Src/tim.c     **** 
 167:Src/tim.c     ****   htim3.Instance = TIM3;
  39              		.loc 1 167 0
  40 0004 1648     		ldr	r0, .L7
  41 0006 174B     		ldr	r3, .L7+4
  42 0008 0360     		str	r3, [r0]
 168:Src/tim.c     ****   htim3.Init.Prescaler = 0;
  43              		.loc 1 168 0
  44 000a 0023     		movs	r3, #0
  45 000c 4360     		str	r3, [r0, #4]
 169:Src/tim.c     ****   htim3.Init.CounterMode = TIM_COUNTERMODE_UP;
  46              		.loc 1 169 0
  47 000e 8360     		str	r3, [r0, #8]
 170:Src/tim.c     ****   htim3.Init.Period = 65535;
  48              		.loc 1 170 0
  49 0010 4FF6FF72 		movw	r2, #65535
  50 0014 C260     		str	r2, [r0, #12]
 171:Src/tim.c     ****   htim3.Init.ClockDivision = TIM_CLOCKDIVISION_DIV1;
  51              		.loc 1 171 0
  52 0016 0361     		str	r3, [r0, #16]
 172:Src/tim.c     ****   sConfig.EncoderMode = TIM_ENCODERMODE_TI1;
  53              		.loc 1 172 0
  54 0018 0122     		movs	r2, #1
  55 001a 0392     		str	r2, [sp, #12]
 173:Src/tim.c     ****   sConfig.IC1Polarity = TIM_ICPOLARITY_RISING;
  56              		.loc 1 173 0
ARM GAS  C:\Users\kotaro\AppData\Local\Temp\ccVB0Tf6.s 			page 5


  57 001c 0493     		str	r3, [sp, #16]
 174:Src/tim.c     ****   sConfig.IC1Selection = TIM_ICSELECTION_DIRECTTI;
  58              		.loc 1 174 0
  59 001e 0592     		str	r2, [sp, #20]
 175:Src/tim.c     ****   sConfig.IC1Prescaler = TIM_ICPSC_DIV1;
  60              		.loc 1 175 0
  61 0020 0693     		str	r3, [sp, #24]
 176:Src/tim.c     ****   sConfig.IC1Filter = 0;
  62              		.loc 1 176 0
  63 0022 0793     		str	r3, [sp, #28]
 177:Src/tim.c     ****   sConfig.IC2Polarity = TIM_ICPOLARITY_RISING;
  64              		.loc 1 177 0
  65 0024 0893     		str	r3, [sp, #32]
 178:Src/tim.c     ****   sConfig.IC2Selection = TIM_ICSELECTION_DIRECTTI;
  66              		.loc 1 178 0
  67 0026 0992     		str	r2, [sp, #36]
 179:Src/tim.c     ****   sConfig.IC2Prescaler = TIM_ICPSC_DIV1;
  68              		.loc 1 179 0
  69 0028 0A93     		str	r3, [sp, #40]
 180:Src/tim.c     ****   sConfig.IC2Filter = 0;
  70              		.loc 1 180 0
  71 002a 0B93     		str	r3, [sp, #44]
 181:Src/tim.c     ****   if (HAL_TIM_Encoder_Init(&htim3, &sConfig) != HAL_OK)
  72              		.loc 1 181 0
  73 002c 03A9     		add	r1, sp, #12
  74 002e FFF7FEFF 		bl	HAL_TIM_Encoder_Init
  75              	.LVL0:
  76 0032 50B9     		cbnz	r0, .L5
  77              	.L2:
 182:Src/tim.c     ****   {
 183:Src/tim.c     ****     _Error_Handler(__FILE__, __LINE__);
 184:Src/tim.c     ****   }
 185:Src/tim.c     **** 
 186:Src/tim.c     ****   sMasterConfig.MasterOutputTrigger = TIM_TRGO_RESET;
  78              		.loc 1 186 0
  79 0034 0023     		movs	r3, #0
  80 0036 0193     		str	r3, [sp, #4]
 187:Src/tim.c     ****   sMasterConfig.MasterSlaveMode = TIM_MASTERSLAVEMODE_DISABLE;
  81              		.loc 1 187 0
  82 0038 0293     		str	r3, [sp, #8]
 188:Src/tim.c     ****   if (HAL_TIMEx_MasterConfigSynchronization(&htim3, &sMasterConfig) != HAL_OK)
  83              		.loc 1 188 0
  84 003a 01A9     		add	r1, sp, #4
  85 003c 0848     		ldr	r0, .L7
  86 003e FFF7FEFF 		bl	HAL_TIMEx_MasterConfigSynchronization
  87              	.LVL1:
  88 0042 38B9     		cbnz	r0, .L6
  89              	.L1:
 189:Src/tim.c     ****   {
 190:Src/tim.c     ****     _Error_Handler(__FILE__, __LINE__);
 191:Src/tim.c     ****   }
 192:Src/tim.c     **** 
 193:Src/tim.c     **** }
  90              		.loc 1 193 0
  91 0044 0DB0     		add	sp, sp, #52
  92              	.LCFI2:
  93              		.cfi_remember_state
ARM GAS  C:\Users\kotaro\AppData\Local\Temp\ccVB0Tf6.s 			page 6


  94              		.cfi_def_cfa_offset 4
  95              		@ sp needed
  96 0046 5DF804FB 		ldr	pc, [sp], #4
  97              	.L5:
  98              	.LCFI3:
  99              		.cfi_restore_state
 183:Src/tim.c     ****   }
 100              		.loc 1 183 0
 101 004a B721     		movs	r1, #183
 102 004c 0648     		ldr	r0, .L7+8
 103 004e FFF7FEFF 		bl	_Error_Handler
 104              	.LVL2:
 105 0052 EFE7     		b	.L2
 106              	.L6:
 190:Src/tim.c     ****   }
 107              		.loc 1 190 0
 108 0054 BE21     		movs	r1, #190
 109 0056 0448     		ldr	r0, .L7+8
 110 0058 FFF7FEFF 		bl	_Error_Handler
 111              	.LVL3:
 112              		.loc 1 193 0
 113 005c F2E7     		b	.L1
 114              	.L8:
 115 005e 00BF     		.align	2
 116              	.L7:
 117 0060 00000000 		.word	htim3
 118 0064 00040040 		.word	1073742848
 119 0068 00000000 		.word	.LC0
 120              		.cfi_endproc
 121              	.LFE161:
 123              		.section	.text.MX_TIM4_Init,"ax",%progbits
 124              		.align	1
 125              		.global	MX_TIM4_Init
 126              		.syntax unified
 127              		.thumb
 128              		.thumb_func
 129              		.fpu fpv4-sp-d16
 131              	MX_TIM4_Init:
 132              	.LFB162:
 194:Src/tim.c     **** /* TIM4 init function */
 195:Src/tim.c     **** void MX_TIM4_Init(void)
 196:Src/tim.c     **** {
 133              		.loc 1 196 0
 134              		.cfi_startproc
 135              		@ args = 0, pretend = 0, frame = 48
 136              		@ frame_needed = 0, uses_anonymous_args = 0
 137 0000 00B5     		push	{lr}
 138              	.LCFI4:
 139              		.cfi_def_cfa_offset 4
 140              		.cfi_offset 14, -4
 141 0002 8DB0     		sub	sp, sp, #52
 142              	.LCFI5:
 143              		.cfi_def_cfa_offset 56
 197:Src/tim.c     ****   TIM_Encoder_InitTypeDef sConfig;
 198:Src/tim.c     ****   TIM_MasterConfigTypeDef sMasterConfig;
 199:Src/tim.c     **** 
 200:Src/tim.c     ****   htim4.Instance = TIM4;
ARM GAS  C:\Users\kotaro\AppData\Local\Temp\ccVB0Tf6.s 			page 7


 144              		.loc 1 200 0
 145 0004 1648     		ldr	r0, .L15
 146 0006 174B     		ldr	r3, .L15+4
 147 0008 0360     		str	r3, [r0]
 201:Src/tim.c     ****   htim4.Init.Prescaler = 0;
 148              		.loc 1 201 0
 149 000a 0023     		movs	r3, #0
 150 000c 4360     		str	r3, [r0, #4]
 202:Src/tim.c     ****   htim4.Init.CounterMode = TIM_COUNTERMODE_UP;
 151              		.loc 1 202 0
 152 000e 8360     		str	r3, [r0, #8]
 203:Src/tim.c     ****   htim4.Init.Period = 65535;
 153              		.loc 1 203 0
 154 0010 4FF6FF72 		movw	r2, #65535
 155 0014 C260     		str	r2, [r0, #12]
 204:Src/tim.c     ****   htim4.Init.ClockDivision = TIM_CLOCKDIVISION_DIV1;
 156              		.loc 1 204 0
 157 0016 0361     		str	r3, [r0, #16]
 205:Src/tim.c     ****   sConfig.EncoderMode = TIM_ENCODERMODE_TI1;
 158              		.loc 1 205 0
 159 0018 0122     		movs	r2, #1
 160 001a 0392     		str	r2, [sp, #12]
 206:Src/tim.c     ****   sConfig.IC1Polarity = TIM_ICPOLARITY_RISING;
 161              		.loc 1 206 0
 162 001c 0493     		str	r3, [sp, #16]
 207:Src/tim.c     ****   sConfig.IC1Selection = TIM_ICSELECTION_DIRECTTI;
 163              		.loc 1 207 0
 164 001e 0592     		str	r2, [sp, #20]
 208:Src/tim.c     ****   sConfig.IC1Prescaler = TIM_ICPSC_DIV1;
 165              		.loc 1 208 0
 166 0020 0693     		str	r3, [sp, #24]
 209:Src/tim.c     ****   sConfig.IC1Filter = 0;
 167              		.loc 1 209 0
 168 0022 0793     		str	r3, [sp, #28]
 210:Src/tim.c     ****   sConfig.IC2Polarity = TIM_ICPOLARITY_RISING;
 169              		.loc 1 210 0
 170 0024 0893     		str	r3, [sp, #32]
 211:Src/tim.c     ****   sConfig.IC2Selection = TIM_ICSELECTION_DIRECTTI;
 171              		.loc 1 211 0
 172 0026 0992     		str	r2, [sp, #36]
 212:Src/tim.c     ****   sConfig.IC2Prescaler = TIM_ICPSC_DIV1;
 173              		.loc 1 212 0
 174 0028 0A93     		str	r3, [sp, #40]
 213:Src/tim.c     ****   sConfig.IC2Filter = 0;
 175              		.loc 1 213 0
 176 002a 0B93     		str	r3, [sp, #44]
 214:Src/tim.c     ****   if (HAL_TIM_Encoder_Init(&htim4, &sConfig) != HAL_OK)
 177              		.loc 1 214 0
 178 002c 03A9     		add	r1, sp, #12
 179 002e FFF7FEFF 		bl	HAL_TIM_Encoder_Init
 180              	.LVL4:
 181 0032 50B9     		cbnz	r0, .L13
 182              	.L10:
 215:Src/tim.c     ****   {
 216:Src/tim.c     ****     _Error_Handler(__FILE__, __LINE__);
 217:Src/tim.c     ****   }
 218:Src/tim.c     **** 
ARM GAS  C:\Users\kotaro\AppData\Local\Temp\ccVB0Tf6.s 			page 8


 219:Src/tim.c     ****   sMasterConfig.MasterOutputTrigger = TIM_TRGO_RESET;
 183              		.loc 1 219 0
 184 0034 0023     		movs	r3, #0
 185 0036 0193     		str	r3, [sp, #4]
 220:Src/tim.c     ****   sMasterConfig.MasterSlaveMode = TIM_MASTERSLAVEMODE_DISABLE;
 186              		.loc 1 220 0
 187 0038 0293     		str	r3, [sp, #8]
 221:Src/tim.c     ****   if (HAL_TIMEx_MasterConfigSynchronization(&htim4, &sMasterConfig) != HAL_OK)
 188              		.loc 1 221 0
 189 003a 01A9     		add	r1, sp, #4
 190 003c 0848     		ldr	r0, .L15
 191 003e FFF7FEFF 		bl	HAL_TIMEx_MasterConfigSynchronization
 192              	.LVL5:
 193 0042 38B9     		cbnz	r0, .L14
 194              	.L9:
 222:Src/tim.c     ****   {
 223:Src/tim.c     ****     _Error_Handler(__FILE__, __LINE__);
 224:Src/tim.c     ****   }
 225:Src/tim.c     **** 
 226:Src/tim.c     **** }
 195              		.loc 1 226 0
 196 0044 0DB0     		add	sp, sp, #52
 197              	.LCFI6:
 198              		.cfi_remember_state
 199              		.cfi_def_cfa_offset 4
 200              		@ sp needed
 201 0046 5DF804FB 		ldr	pc, [sp], #4
 202              	.L13:
 203              	.LCFI7:
 204              		.cfi_restore_state
 216:Src/tim.c     ****   }
 205              		.loc 1 216 0
 206 004a D821     		movs	r1, #216
 207 004c 0648     		ldr	r0, .L15+8
 208 004e FFF7FEFF 		bl	_Error_Handler
 209              	.LVL6:
 210 0052 EFE7     		b	.L10
 211              	.L14:
 223:Src/tim.c     ****   }
 212              		.loc 1 223 0
 213 0054 DF21     		movs	r1, #223
 214 0056 0448     		ldr	r0, .L15+8
 215 0058 FFF7FEFF 		bl	_Error_Handler
 216              	.LVL7:
 217              		.loc 1 226 0
 218 005c F2E7     		b	.L9
 219              	.L16:
 220 005e 00BF     		.align	2
 221              	.L15:
 222 0060 00000000 		.word	htim4
 223 0064 00080040 		.word	1073743872
 224 0068 00000000 		.word	.LC0
 225              		.cfi_endproc
 226              	.LFE162:
 228              		.section	.text.MX_TIM5_Init,"ax",%progbits
 229              		.align	1
 230              		.global	MX_TIM5_Init
ARM GAS  C:\Users\kotaro\AppData\Local\Temp\ccVB0Tf6.s 			page 9


 231              		.syntax unified
 232              		.thumb
 233              		.thumb_func
 234              		.fpu fpv4-sp-d16
 236              	MX_TIM5_Init:
 237              	.LFB163:
 227:Src/tim.c     **** /* TIM5 init function */
 228:Src/tim.c     **** void MX_TIM5_Init(void)
 229:Src/tim.c     **** {
 238              		.loc 1 229 0
 239              		.cfi_startproc
 240              		@ args = 0, pretend = 0, frame = 24
 241              		@ frame_needed = 0, uses_anonymous_args = 0
 242 0000 00B5     		push	{lr}
 243              	.LCFI8:
 244              		.cfi_def_cfa_offset 4
 245              		.cfi_offset 14, -4
 246 0002 87B0     		sub	sp, sp, #28
 247              	.LCFI9:
 248              		.cfi_def_cfa_offset 32
 230:Src/tim.c     ****   TIM_ClockConfigTypeDef sClockSourceConfig;
 231:Src/tim.c     ****   TIM_MasterConfigTypeDef sMasterConfig;
 232:Src/tim.c     **** 
 233:Src/tim.c     ****   htim5.Instance = TIM5;
 249              		.loc 1 233 0
 250 0004 1848     		ldr	r0, .L25
 251 0006 194B     		ldr	r3, .L25+4
 252 0008 0360     		str	r3, [r0]
 234:Src/tim.c     ****   htim5.Init.Prescaler = 9;
 253              		.loc 1 234 0
 254 000a 0923     		movs	r3, #9
 255 000c 4360     		str	r3, [r0, #4]
 235:Src/tim.c     ****   htim5.Init.CounterMode = TIM_COUNTERMODE_UP;
 256              		.loc 1 235 0
 257 000e 0023     		movs	r3, #0
 258 0010 8360     		str	r3, [r0, #8]
 236:Src/tim.c     ****   htim5.Init.Period = 999;
 259              		.loc 1 236 0
 260 0012 40F2E732 		movw	r2, #999
 261 0016 C260     		str	r2, [r0, #12]
 237:Src/tim.c     ****   htim5.Init.ClockDivision = TIM_CLOCKDIVISION_DIV1;
 262              		.loc 1 237 0
 263 0018 0361     		str	r3, [r0, #16]
 238:Src/tim.c     ****   if (HAL_TIM_Base_Init(&htim5) != HAL_OK)
 264              		.loc 1 238 0
 265 001a FFF7FEFF 		bl	HAL_TIM_Base_Init
 266              	.LVL8:
 267 001e 98B9     		cbnz	r0, .L22
 268              	.L18:
 239:Src/tim.c     ****   {
 240:Src/tim.c     ****     _Error_Handler(__FILE__, __LINE__);
 241:Src/tim.c     ****   }
 242:Src/tim.c     **** 
 243:Src/tim.c     ****   sClockSourceConfig.ClockSource = TIM_CLOCKSOURCE_INTERNAL;
 269              		.loc 1 243 0
 270 0020 06A9     		add	r1, sp, #24
 271 0022 4FF48053 		mov	r3, #4096
ARM GAS  C:\Users\kotaro\AppData\Local\Temp\ccVB0Tf6.s 			page 10


 272 0026 41F8103D 		str	r3, [r1, #-16]!
 244:Src/tim.c     ****   if (HAL_TIM_ConfigClockSource(&htim5, &sClockSourceConfig) != HAL_OK)
 273              		.loc 1 244 0
 274 002a 0F48     		ldr	r0, .L25
 275 002c FFF7FEFF 		bl	HAL_TIM_ConfigClockSource
 276              	.LVL9:
 277 0030 78B9     		cbnz	r0, .L23
 278              	.L19:
 245:Src/tim.c     ****   {
 246:Src/tim.c     ****     _Error_Handler(__FILE__, __LINE__);
 247:Src/tim.c     ****   }
 248:Src/tim.c     **** 
 249:Src/tim.c     ****   sMasterConfig.MasterOutputTrigger = TIM_TRGO_RESET;
 279              		.loc 1 249 0
 280 0032 0023     		movs	r3, #0
 281 0034 0093     		str	r3, [sp]
 250:Src/tim.c     ****   sMasterConfig.MasterSlaveMode = TIM_MASTERSLAVEMODE_DISABLE;
 282              		.loc 1 250 0
 283 0036 0193     		str	r3, [sp, #4]
 251:Src/tim.c     ****   if (HAL_TIMEx_MasterConfigSynchronization(&htim5, &sMasterConfig) != HAL_OK)
 284              		.loc 1 251 0
 285 0038 6946     		mov	r1, sp
 286 003a 0B48     		ldr	r0, .L25
 287 003c FFF7FEFF 		bl	HAL_TIMEx_MasterConfigSynchronization
 288              	.LVL10:
 289 0040 60B9     		cbnz	r0, .L24
 290              	.L17:
 252:Src/tim.c     ****   {
 253:Src/tim.c     ****     _Error_Handler(__FILE__, __LINE__);
 254:Src/tim.c     ****   }
 255:Src/tim.c     **** 
 256:Src/tim.c     **** }
 291              		.loc 1 256 0
 292 0042 07B0     		add	sp, sp, #28
 293              	.LCFI10:
 294              		.cfi_remember_state
 295              		.cfi_def_cfa_offset 4
 296              		@ sp needed
 297 0044 5DF804FB 		ldr	pc, [sp], #4
 298              	.L22:
 299              	.LCFI11:
 300              		.cfi_restore_state
 240:Src/tim.c     ****   }
 301              		.loc 1 240 0
 302 0048 F021     		movs	r1, #240
 303 004a 0948     		ldr	r0, .L25+8
 304 004c FFF7FEFF 		bl	_Error_Handler
 305              	.LVL11:
 306 0050 E6E7     		b	.L18
 307              	.L23:
 246:Src/tim.c     ****   }
 308              		.loc 1 246 0
 309 0052 F621     		movs	r1, #246
 310 0054 0648     		ldr	r0, .L25+8
 311 0056 FFF7FEFF 		bl	_Error_Handler
 312              	.LVL12:
 313 005a EAE7     		b	.L19
ARM GAS  C:\Users\kotaro\AppData\Local\Temp\ccVB0Tf6.s 			page 11


 314              	.L24:
 253:Src/tim.c     ****   }
 315              		.loc 1 253 0
 316 005c FD21     		movs	r1, #253
 317 005e 0448     		ldr	r0, .L25+8
 318 0060 FFF7FEFF 		bl	_Error_Handler
 319              	.LVL13:
 320              		.loc 1 256 0
 321 0064 EDE7     		b	.L17
 322              	.L26:
 323 0066 00BF     		.align	2
 324              	.L25:
 325 0068 00000000 		.word	htim5
 326 006c 000C0040 		.word	1073744896
 327 0070 00000000 		.word	.LC0
 328              		.cfi_endproc
 329              	.LFE163:
 331              		.section	.text.HAL_TIM_PWM_MspInit,"ax",%progbits
 332              		.align	1
 333              		.global	HAL_TIM_PWM_MspInit
 334              		.syntax unified
 335              		.thumb
 336              		.thumb_func
 337              		.fpu fpv4-sp-d16
 339              	HAL_TIM_PWM_MspInit:
 340              	.LFB164:
 257:Src/tim.c     **** 
 258:Src/tim.c     **** void HAL_TIM_PWM_MspInit(TIM_HandleTypeDef* tim_pwmHandle)
 259:Src/tim.c     **** {
 341              		.loc 1 259 0
 342              		.cfi_startproc
 343              		@ args = 0, pretend = 0, frame = 8
 344              		@ frame_needed = 0, uses_anonymous_args = 0
 345              		@ link register save eliminated.
 346              	.LVL14:
 347 0000 82B0     		sub	sp, sp, #8
 348              	.LCFI12:
 349              		.cfi_def_cfa_offset 8
 260:Src/tim.c     **** 
 261:Src/tim.c     ****   if(tim_pwmHandle->Instance==TIM1)
 350              		.loc 1 261 0
 351 0002 0368     		ldr	r3, [r0]
 352 0004 104A     		ldr	r2, .L33
 353 0006 9342     		cmp	r3, r2
 354 0008 04D0     		beq	.L31
 262:Src/tim.c     ****   {
 263:Src/tim.c     ****   /* USER CODE BEGIN TIM1_MspInit 0 */
 264:Src/tim.c     **** 
 265:Src/tim.c     ****   /* USER CODE END TIM1_MspInit 0 */
 266:Src/tim.c     ****     /* TIM1 clock enable */
 267:Src/tim.c     ****     __HAL_RCC_TIM1_CLK_ENABLE();
 268:Src/tim.c     ****   /* USER CODE BEGIN TIM1_MspInit 1 */
 269:Src/tim.c     **** 
 270:Src/tim.c     ****   /* USER CODE END TIM1_MspInit 1 */
 271:Src/tim.c     ****   }
 272:Src/tim.c     ****   else if(tim_pwmHandle->Instance==TIM2)
 355              		.loc 1 272 0
ARM GAS  C:\Users\kotaro\AppData\Local\Temp\ccVB0Tf6.s 			page 12


 356 000a B3F1804F 		cmp	r3, #1073741824
 357 000e 0ED0     		beq	.L32
 358              	.L27:
 273:Src/tim.c     ****   {
 274:Src/tim.c     ****   /* USER CODE BEGIN TIM2_MspInit 0 */
 275:Src/tim.c     **** 
 276:Src/tim.c     ****   /* USER CODE END TIM2_MspInit 0 */
 277:Src/tim.c     ****     /* TIM2 clock enable */
 278:Src/tim.c     ****     __HAL_RCC_TIM2_CLK_ENABLE();
 279:Src/tim.c     ****   /* USER CODE BEGIN TIM2_MspInit 1 */
 280:Src/tim.c     **** 
 281:Src/tim.c     ****   /* USER CODE END TIM2_MspInit 1 */
 282:Src/tim.c     ****   }
 283:Src/tim.c     **** }
 359              		.loc 1 283 0
 360 0010 02B0     		add	sp, sp, #8
 361              	.LCFI13:
 362              		.cfi_remember_state
 363              		.cfi_def_cfa_offset 0
 364              		@ sp needed
 365 0012 7047     		bx	lr
 366              	.L31:
 367              	.LCFI14:
 368              		.cfi_restore_state
 369              	.LBB2:
 267:Src/tim.c     ****   /* USER CODE BEGIN TIM1_MspInit 1 */
 370              		.loc 1 267 0
 371 0014 0023     		movs	r3, #0
 372 0016 0093     		str	r3, [sp]
 373 0018 0C4B     		ldr	r3, .L33+4
 374 001a 5A6C     		ldr	r2, [r3, #68]
 375 001c 42F00102 		orr	r2, r2, #1
 376 0020 5A64     		str	r2, [r3, #68]
 377 0022 5B6C     		ldr	r3, [r3, #68]
 378 0024 03F00103 		and	r3, r3, #1
 379 0028 0093     		str	r3, [sp]
 380 002a 009B     		ldr	r3, [sp]
 381              	.LBE2:
 382 002c F0E7     		b	.L27
 383              	.L32:
 384              	.LBB3:
 278:Src/tim.c     ****   /* USER CODE BEGIN TIM2_MspInit 1 */
 385              		.loc 1 278 0
 386 002e 0023     		movs	r3, #0
 387 0030 0193     		str	r3, [sp, #4]
 388 0032 064B     		ldr	r3, .L33+4
 389 0034 1A6C     		ldr	r2, [r3, #64]
 390 0036 42F00102 		orr	r2, r2, #1
 391 003a 1A64     		str	r2, [r3, #64]
 392 003c 1B6C     		ldr	r3, [r3, #64]
 393 003e 03F00103 		and	r3, r3, #1
 394 0042 0193     		str	r3, [sp, #4]
 395 0044 019B     		ldr	r3, [sp, #4]
 396              	.LBE3:
 397              		.loc 1 283 0
 398 0046 E3E7     		b	.L27
 399              	.L34:
ARM GAS  C:\Users\kotaro\AppData\Local\Temp\ccVB0Tf6.s 			page 13


 400              		.align	2
 401              	.L33:
 402 0048 00000140 		.word	1073807360
 403 004c 00380240 		.word	1073887232
 404              		.cfi_endproc
 405              	.LFE164:
 407              		.section	.text.HAL_TIM_Encoder_MspInit,"ax",%progbits
 408              		.align	1
 409              		.global	HAL_TIM_Encoder_MspInit
 410              		.syntax unified
 411              		.thumb
 412              		.thumb_func
 413              		.fpu fpv4-sp-d16
 415              	HAL_TIM_Encoder_MspInit:
 416              	.LFB165:
 284:Src/tim.c     **** 
 285:Src/tim.c     **** void HAL_TIM_Encoder_MspInit(TIM_HandleTypeDef* tim_encoderHandle)
 286:Src/tim.c     **** {
 417              		.loc 1 286 0
 418              		.cfi_startproc
 419              		@ args = 0, pretend = 0, frame = 32
 420              		@ frame_needed = 0, uses_anonymous_args = 0
 421              	.LVL15:
 422 0000 00B5     		push	{lr}
 423              	.LCFI15:
 424              		.cfi_def_cfa_offset 4
 425              		.cfi_offset 14, -4
 426 0002 89B0     		sub	sp, sp, #36
 427              	.LCFI16:
 428              		.cfi_def_cfa_offset 40
 287:Src/tim.c     **** 
 288:Src/tim.c     ****   GPIO_InitTypeDef GPIO_InitStruct;
 289:Src/tim.c     ****   if(tim_encoderHandle->Instance==TIM3)
 429              		.loc 1 289 0
 430 0004 0368     		ldr	r3, [r0]
 431 0006 1D4A     		ldr	r2, .L41
 432 0008 9342     		cmp	r3, r2
 433 000a 05D0     		beq	.L39
 290:Src/tim.c     ****   {
 291:Src/tim.c     ****   /* USER CODE BEGIN TIM3_MspInit 0 */
 292:Src/tim.c     **** 
 293:Src/tim.c     ****   /* USER CODE END TIM3_MspInit 0 */
 294:Src/tim.c     ****     /* TIM3 clock enable */
 295:Src/tim.c     ****     __HAL_RCC_TIM3_CLK_ENABLE();
 296:Src/tim.c     ****   
 297:Src/tim.c     ****     /**TIM3 GPIO Configuration    
 298:Src/tim.c     ****     PA6     ------> TIM3_CH1
 299:Src/tim.c     ****     PA7     ------> TIM3_CH2 
 300:Src/tim.c     ****     */
 301:Src/tim.c     ****     GPIO_InitStruct.Pin = GPIO_PIN_6|GPIO_PIN_7;
 302:Src/tim.c     ****     GPIO_InitStruct.Mode = GPIO_MODE_AF_PP;
 303:Src/tim.c     ****     GPIO_InitStruct.Pull = GPIO_NOPULL;
 304:Src/tim.c     ****     GPIO_InitStruct.Speed = GPIO_SPEED_FREQ_LOW;
 305:Src/tim.c     ****     GPIO_InitStruct.Alternate = GPIO_AF2_TIM3;
 306:Src/tim.c     ****     HAL_GPIO_Init(GPIOA, &GPIO_InitStruct);
 307:Src/tim.c     **** 
 308:Src/tim.c     ****   /* USER CODE BEGIN TIM3_MspInit 1 */
ARM GAS  C:\Users\kotaro\AppData\Local\Temp\ccVB0Tf6.s 			page 14


 309:Src/tim.c     **** 
 310:Src/tim.c     ****   /* USER CODE END TIM3_MspInit 1 */
 311:Src/tim.c     ****   }
 312:Src/tim.c     ****   else if(tim_encoderHandle->Instance==TIM4)
 434              		.loc 1 312 0
 435 000c 1C4A     		ldr	r2, .L41+4
 436 000e 9342     		cmp	r3, r2
 437 0010 1BD0     		beq	.L40
 438              	.LVL16:
 439              	.L35:
 313:Src/tim.c     ****   {
 314:Src/tim.c     ****   /* USER CODE BEGIN TIM4_MspInit 0 */
 315:Src/tim.c     **** 
 316:Src/tim.c     ****   /* USER CODE END TIM4_MspInit 0 */
 317:Src/tim.c     ****     /* TIM4 clock enable */
 318:Src/tim.c     ****     __HAL_RCC_TIM4_CLK_ENABLE();
 319:Src/tim.c     ****   
 320:Src/tim.c     ****     /**TIM4 GPIO Configuration    
 321:Src/tim.c     ****     PB6     ------> TIM4_CH1
 322:Src/tim.c     ****     PB7     ------> TIM4_CH2 
 323:Src/tim.c     ****     */
 324:Src/tim.c     ****     GPIO_InitStruct.Pin = GPIO_PIN_6|GPIO_PIN_7;
 325:Src/tim.c     ****     GPIO_InitStruct.Mode = GPIO_MODE_AF_PP;
 326:Src/tim.c     ****     GPIO_InitStruct.Pull = GPIO_NOPULL;
 327:Src/tim.c     ****     GPIO_InitStruct.Speed = GPIO_SPEED_FREQ_LOW;
 328:Src/tim.c     ****     GPIO_InitStruct.Alternate = GPIO_AF2_TIM4;
 329:Src/tim.c     ****     HAL_GPIO_Init(GPIOB, &GPIO_InitStruct);
 330:Src/tim.c     **** 
 331:Src/tim.c     ****   /* USER CODE BEGIN TIM4_MspInit 1 */
 332:Src/tim.c     **** 
 333:Src/tim.c     ****   /* USER CODE END TIM4_MspInit 1 */
 334:Src/tim.c     ****   }
 335:Src/tim.c     **** }
 440              		.loc 1 335 0
 441 0012 09B0     		add	sp, sp, #36
 442              	.LCFI17:
 443              		.cfi_remember_state
 444              		.cfi_def_cfa_offset 4
 445              		@ sp needed
 446 0014 5DF804FB 		ldr	pc, [sp], #4
 447              	.LVL17:
 448              	.L39:
 449              	.LCFI18:
 450              		.cfi_restore_state
 451              	.LBB4:
 295:Src/tim.c     ****   
 452              		.loc 1 295 0
 453 0018 0023     		movs	r3, #0
 454 001a 0193     		str	r3, [sp, #4]
 455 001c 02F50D32 		add	r2, r2, #144384
 456 0020 116C     		ldr	r1, [r2, #64]
 457 0022 41F00201 		orr	r1, r1, #2
 458 0026 1164     		str	r1, [r2, #64]
 459 0028 126C     		ldr	r2, [r2, #64]
 460 002a 02F00202 		and	r2, r2, #2
 461 002e 0192     		str	r2, [sp, #4]
 462 0030 019A     		ldr	r2, [sp, #4]
ARM GAS  C:\Users\kotaro\AppData\Local\Temp\ccVB0Tf6.s 			page 15


 463              	.LBE4:
 301:Src/tim.c     ****     GPIO_InitStruct.Mode = GPIO_MODE_AF_PP;
 464              		.loc 1 301 0
 465 0032 C022     		movs	r2, #192
 466 0034 0392     		str	r2, [sp, #12]
 302:Src/tim.c     ****     GPIO_InitStruct.Pull = GPIO_NOPULL;
 467              		.loc 1 302 0
 468 0036 0222     		movs	r2, #2
 469 0038 0492     		str	r2, [sp, #16]
 303:Src/tim.c     ****     GPIO_InitStruct.Speed = GPIO_SPEED_FREQ_LOW;
 470              		.loc 1 303 0
 471 003a 0593     		str	r3, [sp, #20]
 304:Src/tim.c     ****     GPIO_InitStruct.Alternate = GPIO_AF2_TIM3;
 472              		.loc 1 304 0
 473 003c 0693     		str	r3, [sp, #24]
 305:Src/tim.c     ****     HAL_GPIO_Init(GPIOA, &GPIO_InitStruct);
 474              		.loc 1 305 0
 475 003e 0792     		str	r2, [sp, #28]
 306:Src/tim.c     **** 
 476              		.loc 1 306 0
 477 0040 03A9     		add	r1, sp, #12
 478 0042 1048     		ldr	r0, .L41+8
 479              	.LVL18:
 480 0044 FFF7FEFF 		bl	HAL_GPIO_Init
 481              	.LVL19:
 482 0048 E3E7     		b	.L35
 483              	.LVL20:
 484              	.L40:
 485              	.LBB5:
 318:Src/tim.c     ****   
 486              		.loc 1 318 0
 487 004a 0023     		movs	r3, #0
 488 004c 0293     		str	r3, [sp, #8]
 489 004e 02F50C32 		add	r2, r2, #143360
 490 0052 116C     		ldr	r1, [r2, #64]
 491 0054 41F00401 		orr	r1, r1, #4
 492 0058 1164     		str	r1, [r2, #64]
 493 005a 126C     		ldr	r2, [r2, #64]
 494 005c 02F00402 		and	r2, r2, #4
 495 0060 0292     		str	r2, [sp, #8]
 496 0062 029A     		ldr	r2, [sp, #8]
 497              	.LBE5:
 324:Src/tim.c     ****     GPIO_InitStruct.Mode = GPIO_MODE_AF_PP;
 498              		.loc 1 324 0
 499 0064 C022     		movs	r2, #192
 500 0066 0392     		str	r2, [sp, #12]
 325:Src/tim.c     ****     GPIO_InitStruct.Pull = GPIO_NOPULL;
 501              		.loc 1 325 0
 502 0068 0222     		movs	r2, #2
 503 006a 0492     		str	r2, [sp, #16]
 326:Src/tim.c     ****     GPIO_InitStruct.Speed = GPIO_SPEED_FREQ_LOW;
 504              		.loc 1 326 0
 505 006c 0593     		str	r3, [sp, #20]
 327:Src/tim.c     ****     GPIO_InitStruct.Alternate = GPIO_AF2_TIM4;
 506              		.loc 1 327 0
 507 006e 0693     		str	r3, [sp, #24]
 328:Src/tim.c     ****     HAL_GPIO_Init(GPIOB, &GPIO_InitStruct);
ARM GAS  C:\Users\kotaro\AppData\Local\Temp\ccVB0Tf6.s 			page 16


 508              		.loc 1 328 0
 509 0070 0792     		str	r2, [sp, #28]
 329:Src/tim.c     **** 
 510              		.loc 1 329 0
 511 0072 03A9     		add	r1, sp, #12
 512 0074 0448     		ldr	r0, .L41+12
 513              	.LVL21:
 514 0076 FFF7FEFF 		bl	HAL_GPIO_Init
 515              	.LVL22:
 516              		.loc 1 335 0
 517 007a CAE7     		b	.L35
 518              	.L42:
 519              		.align	2
 520              	.L41:
 521 007c 00040040 		.word	1073742848
 522 0080 00080040 		.word	1073743872
 523 0084 00000240 		.word	1073872896
 524 0088 00040240 		.word	1073873920
 525              		.cfi_endproc
 526              	.LFE165:
 528              		.section	.text.HAL_TIM_Base_MspInit,"ax",%progbits
 529              		.align	1
 530              		.global	HAL_TIM_Base_MspInit
 531              		.syntax unified
 532              		.thumb
 533              		.thumb_func
 534              		.fpu fpv4-sp-d16
 536              	HAL_TIM_Base_MspInit:
 537              	.LFB166:
 336:Src/tim.c     **** 
 337:Src/tim.c     **** void HAL_TIM_Base_MspInit(TIM_HandleTypeDef* tim_baseHandle)
 338:Src/tim.c     **** {
 538              		.loc 1 338 0
 539              		.cfi_startproc
 540              		@ args = 0, pretend = 0, frame = 8
 541              		@ frame_needed = 0, uses_anonymous_args = 0
 542              	.LVL23:
 339:Src/tim.c     **** 
 340:Src/tim.c     ****   if(tim_baseHandle->Instance==TIM5)
 543              		.loc 1 340 0
 544 0000 0268     		ldr	r2, [r0]
 545 0002 0E4B     		ldr	r3, .L50
 546 0004 9A42     		cmp	r2, r3
 547 0006 00D0     		beq	.L49
 548 0008 7047     		bx	lr
 549              	.L49:
 338:Src/tim.c     **** 
 550              		.loc 1 338 0
 551 000a 00B5     		push	{lr}
 552              	.LCFI19:
 553              		.cfi_def_cfa_offset 4
 554              		.cfi_offset 14, -4
 555 000c 83B0     		sub	sp, sp, #12
 556              	.LCFI20:
 557              		.cfi_def_cfa_offset 16
 558              	.LBB6:
 341:Src/tim.c     ****   {
ARM GAS  C:\Users\kotaro\AppData\Local\Temp\ccVB0Tf6.s 			page 17


 342:Src/tim.c     ****   /* USER CODE BEGIN TIM5_MspInit 0 */
 343:Src/tim.c     **** 
 344:Src/tim.c     ****   /* USER CODE END TIM5_MspInit 0 */
 345:Src/tim.c     ****     /* TIM5 clock enable */
 346:Src/tim.c     ****     __HAL_RCC_TIM5_CLK_ENABLE();
 559              		.loc 1 346 0
 560 000e 0021     		movs	r1, #0
 561 0010 0191     		str	r1, [sp, #4]
 562 0012 03F50B33 		add	r3, r3, #142336
 563 0016 1A6C     		ldr	r2, [r3, #64]
 564 0018 42F00802 		orr	r2, r2, #8
 565 001c 1A64     		str	r2, [r3, #64]
 566 001e 1B6C     		ldr	r3, [r3, #64]
 567 0020 03F00803 		and	r3, r3, #8
 568 0024 0193     		str	r3, [sp, #4]
 569 0026 019B     		ldr	r3, [sp, #4]
 570              	.LBE6:
 347:Src/tim.c     **** 
 348:Src/tim.c     ****     /* TIM5 interrupt Init */
 349:Src/tim.c     ****     HAL_NVIC_SetPriority(TIM5_IRQn, 0, 0);
 571              		.loc 1 349 0
 572 0028 0A46     		mov	r2, r1
 573 002a 3220     		movs	r0, #50
 574              	.LVL24:
 575 002c FFF7FEFF 		bl	HAL_NVIC_SetPriority
 576              	.LVL25:
 350:Src/tim.c     ****     HAL_NVIC_EnableIRQ(TIM5_IRQn);
 577              		.loc 1 350 0
 578 0030 3220     		movs	r0, #50
 579 0032 FFF7FEFF 		bl	HAL_NVIC_EnableIRQ
 580              	.LVL26:
 351:Src/tim.c     ****   /* USER CODE BEGIN TIM5_MspInit 1 */
 352:Src/tim.c     **** 
 353:Src/tim.c     ****   /* USER CODE END TIM5_MspInit 1 */
 354:Src/tim.c     ****   }
 355:Src/tim.c     **** }
 581              		.loc 1 355 0
 582 0036 03B0     		add	sp, sp, #12
 583              	.LCFI21:
 584              		.cfi_def_cfa_offset 4
 585              		@ sp needed
 586 0038 5DF804FB 		ldr	pc, [sp], #4
 587              	.L51:
 588              		.align	2
 589              	.L50:
 590 003c 000C0040 		.word	1073744896
 591              		.cfi_endproc
 592              	.LFE166:
 594              		.section	.text.HAL_TIM_MspPostInit,"ax",%progbits
 595              		.align	1
 596              		.global	HAL_TIM_MspPostInit
 597              		.syntax unified
 598              		.thumb
 599              		.thumb_func
 600              		.fpu fpv4-sp-d16
 602              	HAL_TIM_MspPostInit:
 603              	.LFB167:
ARM GAS  C:\Users\kotaro\AppData\Local\Temp\ccVB0Tf6.s 			page 18


 356:Src/tim.c     **** void HAL_TIM_MspPostInit(TIM_HandleTypeDef* timHandle)
 357:Src/tim.c     **** {
 604              		.loc 1 357 0
 605              		.cfi_startproc
 606              		@ args = 0, pretend = 0, frame = 24
 607              		@ frame_needed = 0, uses_anonymous_args = 0
 608              	.LVL27:
 609 0000 00B5     		push	{lr}
 610              	.LCFI22:
 611              		.cfi_def_cfa_offset 4
 612              		.cfi_offset 14, -4
 613 0002 87B0     		sub	sp, sp, #28
 614              	.LCFI23:
 615              		.cfi_def_cfa_offset 32
 358:Src/tim.c     **** 
 359:Src/tim.c     ****   GPIO_InitTypeDef GPIO_InitStruct;
 360:Src/tim.c     ****   if(timHandle->Instance==TIM1)
 616              		.loc 1 360 0
 617 0004 0368     		ldr	r3, [r0]
 618 0006 134A     		ldr	r2, .L58
 619 0008 9342     		cmp	r3, r2
 620 000a 05D0     		beq	.L56
 361:Src/tim.c     ****   {
 362:Src/tim.c     ****   /* USER CODE BEGIN TIM1_MspPostInit 0 */
 363:Src/tim.c     **** 
 364:Src/tim.c     ****   /* USER CODE END TIM1_MspPostInit 0 */
 365:Src/tim.c     ****     /**TIM1 GPIO Configuration    
 366:Src/tim.c     ****     PA8     ------> TIM1_CH1
 367:Src/tim.c     ****     PA9     ------> TIM1_CH2
 368:Src/tim.c     ****     PA10     ------> TIM1_CH3
 369:Src/tim.c     ****     PA11     ------> TIM1_CH4 
 370:Src/tim.c     ****     */
 371:Src/tim.c     ****     GPIO_InitStruct.Pin = GPIO_PIN_8|GPIO_PIN_9|GPIO_PIN_10|GPIO_PIN_11;
 372:Src/tim.c     ****     GPIO_InitStruct.Mode = GPIO_MODE_AF_PP;
 373:Src/tim.c     ****     GPIO_InitStruct.Pull = GPIO_NOPULL;
 374:Src/tim.c     ****     GPIO_InitStruct.Speed = GPIO_SPEED_FREQ_LOW;
 375:Src/tim.c     ****     GPIO_InitStruct.Alternate = GPIO_AF1_TIM1;
 376:Src/tim.c     ****     HAL_GPIO_Init(GPIOA, &GPIO_InitStruct);
 377:Src/tim.c     **** 
 378:Src/tim.c     ****   /* USER CODE BEGIN TIM1_MspPostInit 1 */
 379:Src/tim.c     **** 
 380:Src/tim.c     ****   /* USER CODE END TIM1_MspPostInit 1 */
 381:Src/tim.c     ****   }
 382:Src/tim.c     ****   else if(timHandle->Instance==TIM2)
 621              		.loc 1 382 0
 622 000c B3F1804F 		cmp	r3, #1073741824
 623 0010 11D0     		beq	.L57
 624              	.LVL28:
 625              	.L52:
 383:Src/tim.c     ****   {
 384:Src/tim.c     ****   /* USER CODE BEGIN TIM2_MspPostInit 0 */
 385:Src/tim.c     **** 
 386:Src/tim.c     ****   /* USER CODE END TIM2_MspPostInit 0 */
 387:Src/tim.c     ****   
 388:Src/tim.c     ****     /**TIM2 GPIO Configuration    
 389:Src/tim.c     ****     PA5     ------> TIM2_CH1 
 390:Src/tim.c     ****     */
ARM GAS  C:\Users\kotaro\AppData\Local\Temp\ccVB0Tf6.s 			page 19


 391:Src/tim.c     ****     GPIO_InitStruct.Pin = GPIO_PIN_5;
 392:Src/tim.c     ****     GPIO_InitStruct.Mode = GPIO_MODE_AF_PP;
 393:Src/tim.c     ****     GPIO_InitStruct.Pull = GPIO_NOPULL;
 394:Src/tim.c     ****     GPIO_InitStruct.Speed = GPIO_SPEED_FREQ_LOW;
 395:Src/tim.c     ****     GPIO_InitStruct.Alternate = GPIO_AF1_TIM2;
 396:Src/tim.c     ****     HAL_GPIO_Init(GPIOA, &GPIO_InitStruct);
 397:Src/tim.c     **** 
 398:Src/tim.c     ****   /* USER CODE BEGIN TIM2_MspPostInit 1 */
 399:Src/tim.c     **** 
 400:Src/tim.c     ****   /* USER CODE END TIM2_MspPostInit 1 */
 401:Src/tim.c     ****   }
 402:Src/tim.c     **** 
 403:Src/tim.c     **** }
 626              		.loc 1 403 0
 627 0012 07B0     		add	sp, sp, #28
 628              	.LCFI24:
 629              		.cfi_remember_state
 630              		.cfi_def_cfa_offset 4
 631              		@ sp needed
 632 0014 5DF804FB 		ldr	pc, [sp], #4
 633              	.LVL29:
 634              	.L56:
 635              	.LCFI25:
 636              		.cfi_restore_state
 371:Src/tim.c     ****     GPIO_InitStruct.Mode = GPIO_MODE_AF_PP;
 637              		.loc 1 371 0
 638 0018 4FF47063 		mov	r3, #3840
 639 001c 0193     		str	r3, [sp, #4]
 372:Src/tim.c     ****     GPIO_InitStruct.Pull = GPIO_NOPULL;
 640              		.loc 1 372 0
 641 001e 0223     		movs	r3, #2
 642 0020 0293     		str	r3, [sp, #8]
 373:Src/tim.c     ****     GPIO_InitStruct.Speed = GPIO_SPEED_FREQ_LOW;
 643              		.loc 1 373 0
 644 0022 0023     		movs	r3, #0
 645 0024 0393     		str	r3, [sp, #12]
 374:Src/tim.c     ****     GPIO_InitStruct.Alternate = GPIO_AF1_TIM1;
 646              		.loc 1 374 0
 647 0026 0493     		str	r3, [sp, #16]
 375:Src/tim.c     ****     HAL_GPIO_Init(GPIOA, &GPIO_InitStruct);
 648              		.loc 1 375 0
 649 0028 0123     		movs	r3, #1
 650 002a 0593     		str	r3, [sp, #20]
 376:Src/tim.c     **** 
 651              		.loc 1 376 0
 652 002c 01A9     		add	r1, sp, #4
 653 002e 0A48     		ldr	r0, .L58+4
 654              	.LVL30:
 655 0030 FFF7FEFF 		bl	HAL_GPIO_Init
 656              	.LVL31:
 657 0034 EDE7     		b	.L52
 658              	.LVL32:
 659              	.L57:
 391:Src/tim.c     ****     GPIO_InitStruct.Mode = GPIO_MODE_AF_PP;
 660              		.loc 1 391 0
 661 0036 2023     		movs	r3, #32
 662 0038 0193     		str	r3, [sp, #4]
ARM GAS  C:\Users\kotaro\AppData\Local\Temp\ccVB0Tf6.s 			page 20


 392:Src/tim.c     ****     GPIO_InitStruct.Pull = GPIO_NOPULL;
 663              		.loc 1 392 0
 664 003a 0223     		movs	r3, #2
 665 003c 0293     		str	r3, [sp, #8]
 393:Src/tim.c     ****     GPIO_InitStruct.Speed = GPIO_SPEED_FREQ_LOW;
 666              		.loc 1 393 0
 667 003e 0023     		movs	r3, #0
 668 0040 0393     		str	r3, [sp, #12]
 394:Src/tim.c     ****     GPIO_InitStruct.Alternate = GPIO_AF1_TIM2;
 669              		.loc 1 394 0
 670 0042 0493     		str	r3, [sp, #16]
 395:Src/tim.c     ****     HAL_GPIO_Init(GPIOA, &GPIO_InitStruct);
 671              		.loc 1 395 0
 672 0044 0123     		movs	r3, #1
 673 0046 0593     		str	r3, [sp, #20]
 396:Src/tim.c     **** 
 674              		.loc 1 396 0
 675 0048 01A9     		add	r1, sp, #4
 676 004a 0348     		ldr	r0, .L58+4
 677              	.LVL33:
 678 004c FFF7FEFF 		bl	HAL_GPIO_Init
 679              	.LVL34:
 680              		.loc 1 403 0
 681 0050 DFE7     		b	.L52
 682              	.L59:
 683 0052 00BF     		.align	2
 684              	.L58:
 685 0054 00000140 		.word	1073807360
 686 0058 00000240 		.word	1073872896
 687              		.cfi_endproc
 688              	.LFE167:
 690              		.section	.text.MX_TIM1_Init,"ax",%progbits
 691              		.align	1
 692              		.global	MX_TIM1_Init
 693              		.syntax unified
 694              		.thumb
 695              		.thumb_func
 696              		.fpu fpv4-sp-d16
 698              	MX_TIM1_Init:
 699              	.LFB159:
  61:Src/tim.c     ****   TIM_MasterConfigTypeDef sMasterConfig;
 700              		.loc 1 61 0
 701              		.cfi_startproc
 702              		@ args = 0, pretend = 0, frame = 64
 703              		@ frame_needed = 0, uses_anonymous_args = 0
 704 0000 00B5     		push	{lr}
 705              	.LCFI26:
 706              		.cfi_def_cfa_offset 4
 707              		.cfi_offset 14, -4
 708 0002 91B0     		sub	sp, sp, #68
 709              	.LCFI27:
 710              		.cfi_def_cfa_offset 72
  66:Src/tim.c     ****   htim1.Init.Prescaler = 1;
 711              		.loc 1 66 0
 712 0004 3948     		ldr	r0, .L76
 713 0006 3A4B     		ldr	r3, .L76+4
 714 0008 0360     		str	r3, [r0]
ARM GAS  C:\Users\kotaro\AppData\Local\Temp\ccVB0Tf6.s 			page 21


  67:Src/tim.c     ****   htim1.Init.CounterMode = TIM_COUNTERMODE_UP;
 715              		.loc 1 67 0
 716 000a 0123     		movs	r3, #1
 717 000c 4360     		str	r3, [r0, #4]
  68:Src/tim.c     ****   htim1.Init.Period = 799;
 718              		.loc 1 68 0
 719 000e 0023     		movs	r3, #0
 720 0010 8360     		str	r3, [r0, #8]
  69:Src/tim.c     ****   htim1.Init.ClockDivision = TIM_CLOCKDIVISION_DIV1;
 721              		.loc 1 69 0
 722 0012 40F21F32 		movw	r2, #799
 723 0016 C260     		str	r2, [r0, #12]
  70:Src/tim.c     ****   htim1.Init.RepetitionCounter = 0;
 724              		.loc 1 70 0
 725 0018 0361     		str	r3, [r0, #16]
  71:Src/tim.c     ****   if (HAL_TIM_PWM_Init(&htim1) != HAL_OK)
 726              		.loc 1 71 0
 727 001a 4361     		str	r3, [r0, #20]
  72:Src/tim.c     ****   {
 728              		.loc 1 72 0
 729 001c FFF7FEFF 		bl	HAL_TIM_PWM_Init
 730              	.LVL35:
 731 0020 0028     		cmp	r0, #0
 732 0022 3FD1     		bne	.L69
 733              	.L61:
  77:Src/tim.c     ****   sMasterConfig.MasterSlaveMode = TIM_MASTERSLAVEMODE_DISABLE;
 734              		.loc 1 77 0
 735 0024 0023     		movs	r3, #0
 736 0026 0E93     		str	r3, [sp, #56]
  78:Src/tim.c     ****   if (HAL_TIMEx_MasterConfigSynchronization(&htim1, &sMasterConfig) != HAL_OK)
 737              		.loc 1 78 0
 738 0028 0F93     		str	r3, [sp, #60]
  79:Src/tim.c     ****   {
 739              		.loc 1 79 0
 740 002a 0EA9     		add	r1, sp, #56
 741 002c 2F48     		ldr	r0, .L76
 742 002e FFF7FEFF 		bl	HAL_TIMEx_MasterConfigSynchronization
 743              	.LVL36:
 744 0032 0028     		cmp	r0, #0
 745 0034 3BD1     		bne	.L70
 746              	.L62:
  84:Src/tim.c     ****   sConfigOC.Pulse = 0;
 747              		.loc 1 84 0
 748 0036 6023     		movs	r3, #96
 749 0038 0793     		str	r3, [sp, #28]
  85:Src/tim.c     ****   sConfigOC.OCPolarity = TIM_OCPOLARITY_HIGH;
 750              		.loc 1 85 0
 751 003a 0022     		movs	r2, #0
 752 003c 0892     		str	r2, [sp, #32]
  86:Src/tim.c     ****   sConfigOC.OCNPolarity = TIM_OCNPOLARITY_HIGH;
 753              		.loc 1 86 0
 754 003e 0992     		str	r2, [sp, #36]
  87:Src/tim.c     ****   sConfigOC.OCFastMode = TIM_OCFAST_DISABLE;
 755              		.loc 1 87 0
 756 0040 0A92     		str	r2, [sp, #40]
  88:Src/tim.c     ****   sConfigOC.OCIdleState = TIM_OCIDLESTATE_RESET;
 757              		.loc 1 88 0
ARM GAS  C:\Users\kotaro\AppData\Local\Temp\ccVB0Tf6.s 			page 22


 758 0042 0B92     		str	r2, [sp, #44]
  89:Src/tim.c     ****   sConfigOC.OCNIdleState = TIM_OCNIDLESTATE_RESET;
 759              		.loc 1 89 0
 760 0044 0C92     		str	r2, [sp, #48]
  90:Src/tim.c     ****   if (HAL_TIM_PWM_ConfigChannel(&htim1, &sConfigOC, TIM_CHANNEL_1) != HAL_OK)
 761              		.loc 1 90 0
 762 0046 0D92     		str	r2, [sp, #52]
  91:Src/tim.c     ****   {
 763              		.loc 1 91 0
 764 0048 07A9     		add	r1, sp, #28
 765 004a 2848     		ldr	r0, .L76
 766 004c FFF7FEFF 		bl	HAL_TIM_PWM_ConfigChannel
 767              	.LVL37:
 768 0050 0028     		cmp	r0, #0
 769 0052 31D1     		bne	.L71
 770              	.L63:
  96:Src/tim.c     ****   {
 771              		.loc 1 96 0
 772 0054 0422     		movs	r2, #4
 773 0056 07A9     		add	r1, sp, #28
 774 0058 2448     		ldr	r0, .L76
 775 005a FFF7FEFF 		bl	HAL_TIM_PWM_ConfigChannel
 776              	.LVL38:
 777 005e 0028     		cmp	r0, #0
 778 0060 2FD1     		bne	.L72
 779              	.L64:
 101:Src/tim.c     ****   {
 780              		.loc 1 101 0
 781 0062 0822     		movs	r2, #8
 782 0064 07A9     		add	r1, sp, #28
 783 0066 2148     		ldr	r0, .L76
 784 0068 FFF7FEFF 		bl	HAL_TIM_PWM_ConfigChannel
 785              	.LVL39:
 786 006c 70BB     		cbnz	r0, .L73
 787              	.L65:
 106:Src/tim.c     ****   {
 788              		.loc 1 106 0
 789 006e 0C22     		movs	r2, #12
 790 0070 07A9     		add	r1, sp, #28
 791 0072 1E48     		ldr	r0, .L76
 792 0074 FFF7FEFF 		bl	HAL_TIM_PWM_ConfigChannel
 793              	.LVL40:
 794 0078 68BB     		cbnz	r0, .L74
 795              	.L66:
 111:Src/tim.c     ****   sBreakDeadTimeConfig.OffStateIDLEMode = TIM_OSSI_DISABLE;
 796              		.loc 1 111 0
 797 007a 0023     		movs	r3, #0
 798 007c 0093     		str	r3, [sp]
 112:Src/tim.c     ****   sBreakDeadTimeConfig.LockLevel = TIM_LOCKLEVEL_OFF;
 799              		.loc 1 112 0
 800 007e 0193     		str	r3, [sp, #4]
 113:Src/tim.c     ****   sBreakDeadTimeConfig.DeadTime = 0;
 801              		.loc 1 113 0
 802 0080 0293     		str	r3, [sp, #8]
 114:Src/tim.c     ****   sBreakDeadTimeConfig.BreakState = TIM_BREAK_DISABLE;
 803              		.loc 1 114 0
 804 0082 0393     		str	r3, [sp, #12]
ARM GAS  C:\Users\kotaro\AppData\Local\Temp\ccVB0Tf6.s 			page 23


 115:Src/tim.c     ****   sBreakDeadTimeConfig.BreakPolarity = TIM_BREAKPOLARITY_HIGH;
 805              		.loc 1 115 0
 806 0084 0493     		str	r3, [sp, #16]
 116:Src/tim.c     ****   sBreakDeadTimeConfig.AutomaticOutput = TIM_AUTOMATICOUTPUT_DISABLE;
 807              		.loc 1 116 0
 808 0086 4FF40052 		mov	r2, #8192
 809 008a 0592     		str	r2, [sp, #20]
 117:Src/tim.c     ****   if (HAL_TIMEx_ConfigBreakDeadTime(&htim1, &sBreakDeadTimeConfig) != HAL_OK)
 810              		.loc 1 117 0
 811 008c 0693     		str	r3, [sp, #24]
 118:Src/tim.c     ****   {
 812              		.loc 1 118 0
 813 008e 6946     		mov	r1, sp
 814 0090 1648     		ldr	r0, .L76
 815 0092 FFF7FEFF 		bl	HAL_TIMEx_ConfigBreakDeadTime
 816              	.LVL41:
 817 0096 18BB     		cbnz	r0, .L75
 818              	.L67:
 123:Src/tim.c     **** 
 819              		.loc 1 123 0
 820 0098 1448     		ldr	r0, .L76
 821 009a FFF7FEFF 		bl	HAL_TIM_MspPostInit
 822              	.LVL42:
 125:Src/tim.c     **** /* TIM2 init function */
 823              		.loc 1 125 0
 824 009e 11B0     		add	sp, sp, #68
 825              	.LCFI28:
 826              		.cfi_remember_state
 827              		.cfi_def_cfa_offset 4
 828              		@ sp needed
 829 00a0 5DF804FB 		ldr	pc, [sp], #4
 830              	.L69:
 831              	.LCFI29:
 832              		.cfi_restore_state
  74:Src/tim.c     ****   }
 833              		.loc 1 74 0
 834 00a4 4A21     		movs	r1, #74
 835 00a6 1348     		ldr	r0, .L76+8
 836 00a8 FFF7FEFF 		bl	_Error_Handler
 837              	.LVL43:
 838 00ac BAE7     		b	.L61
 839              	.L70:
  81:Src/tim.c     ****   }
 840              		.loc 1 81 0
 841 00ae 5121     		movs	r1, #81
 842 00b0 1048     		ldr	r0, .L76+8
 843 00b2 FFF7FEFF 		bl	_Error_Handler
 844              	.LVL44:
 845 00b6 BEE7     		b	.L62
 846              	.L71:
  93:Src/tim.c     ****   }
 847              		.loc 1 93 0
 848 00b8 5D21     		movs	r1, #93
 849 00ba 0E48     		ldr	r0, .L76+8
 850 00bc FFF7FEFF 		bl	_Error_Handler
 851              	.LVL45:
 852 00c0 C8E7     		b	.L63
ARM GAS  C:\Users\kotaro\AppData\Local\Temp\ccVB0Tf6.s 			page 24


 853              	.L72:
  98:Src/tim.c     ****   }
 854              		.loc 1 98 0
 855 00c2 6221     		movs	r1, #98
 856 00c4 0B48     		ldr	r0, .L76+8
 857 00c6 FFF7FEFF 		bl	_Error_Handler
 858              	.LVL46:
 859 00ca CAE7     		b	.L64
 860              	.L73:
 103:Src/tim.c     ****   }
 861              		.loc 1 103 0
 862 00cc 6721     		movs	r1, #103
 863 00ce 0948     		ldr	r0, .L76+8
 864 00d0 FFF7FEFF 		bl	_Error_Handler
 865              	.LVL47:
 866 00d4 CBE7     		b	.L65
 867              	.L74:
 108:Src/tim.c     ****   }
 868              		.loc 1 108 0
 869 00d6 6C21     		movs	r1, #108
 870 00d8 0648     		ldr	r0, .L76+8
 871 00da FFF7FEFF 		bl	_Error_Handler
 872              	.LVL48:
 873 00de CCE7     		b	.L66
 874              	.L75:
 120:Src/tim.c     ****   }
 875              		.loc 1 120 0
 876 00e0 7821     		movs	r1, #120
 877 00e2 0448     		ldr	r0, .L76+8
 878 00e4 FFF7FEFF 		bl	_Error_Handler
 879              	.LVL49:
 880 00e8 D6E7     		b	.L67
 881              	.L77:
 882 00ea 00BF     		.align	2
 883              	.L76:
 884 00ec 00000000 		.word	htim1
 885 00f0 00000140 		.word	1073807360
 886 00f4 00000000 		.word	.LC0
 887              		.cfi_endproc
 888              	.LFE159:
 890              		.section	.text.MX_TIM2_Init,"ax",%progbits
 891              		.align	1
 892              		.global	MX_TIM2_Init
 893              		.syntax unified
 894              		.thumb
 895              		.thumb_func
 896              		.fpu fpv4-sp-d16
 898              	MX_TIM2_Init:
 899              	.LFB160:
 128:Src/tim.c     ****   TIM_MasterConfigTypeDef sMasterConfig;
 900              		.loc 1 128 0
 901              		.cfi_startproc
 902              		@ args = 0, pretend = 0, frame = 40
 903              		@ frame_needed = 0, uses_anonymous_args = 0
 904 0000 00B5     		push	{lr}
 905              	.LCFI30:
 906              		.cfi_def_cfa_offset 4
ARM GAS  C:\Users\kotaro\AppData\Local\Temp\ccVB0Tf6.s 			page 25


 907              		.cfi_offset 14, -4
 908 0002 8BB0     		sub	sp, sp, #44
 909              	.LCFI31:
 910              		.cfi_def_cfa_offset 48
 132:Src/tim.c     ****   htim2.Init.Prescaler = 9;
 911              		.loc 1 132 0
 912 0004 1B48     		ldr	r0, .L86
 913 0006 4FF08043 		mov	r3, #1073741824
 914 000a 0360     		str	r3, [r0]
 133:Src/tim.c     ****   htim2.Init.CounterMode = TIM_COUNTERMODE_UP;
 915              		.loc 1 133 0
 916 000c 0923     		movs	r3, #9
 917 000e 4360     		str	r3, [r0, #4]
 134:Src/tim.c     ****   htim2.Init.Period = 999;
 918              		.loc 1 134 0
 919 0010 0023     		movs	r3, #0
 920 0012 8360     		str	r3, [r0, #8]
 135:Src/tim.c     ****   htim2.Init.ClockDivision = TIM_CLOCKDIVISION_DIV1;
 921              		.loc 1 135 0
 922 0014 40F2E732 		movw	r2, #999
 923 0018 C260     		str	r2, [r0, #12]
 136:Src/tim.c     ****   if (HAL_TIM_PWM_Init(&htim2) != HAL_OK)
 924              		.loc 1 136 0
 925 001a 0361     		str	r3, [r0, #16]
 137:Src/tim.c     ****   {
 926              		.loc 1 137 0
 927 001c FFF7FEFF 		bl	HAL_TIM_PWM_Init
 928              	.LVL50:
 929 0020 C0B9     		cbnz	r0, .L83
 930              	.L79:
 142:Src/tim.c     ****   sMasterConfig.MasterSlaveMode = TIM_MASTERSLAVEMODE_DISABLE;
 931              		.loc 1 142 0
 932 0022 0023     		movs	r3, #0
 933 0024 0893     		str	r3, [sp, #32]
 143:Src/tim.c     ****   if (HAL_TIMEx_MasterConfigSynchronization(&htim2, &sMasterConfig) != HAL_OK)
 934              		.loc 1 143 0
 935 0026 0993     		str	r3, [sp, #36]
 144:Src/tim.c     ****   {
 936              		.loc 1 144 0
 937 0028 08A9     		add	r1, sp, #32
 938 002a 1248     		ldr	r0, .L86
 939 002c FFF7FEFF 		bl	HAL_TIMEx_MasterConfigSynchronization
 940              	.LVL51:
 941 0030 A8B9     		cbnz	r0, .L84
 942              	.L80:
 149:Src/tim.c     ****   sConfigOC.Pulse = 0;
 943              		.loc 1 149 0
 944 0032 6023     		movs	r3, #96
 945 0034 0193     		str	r3, [sp, #4]
 150:Src/tim.c     ****   sConfigOC.OCPolarity = TIM_OCPOLARITY_HIGH;
 946              		.loc 1 150 0
 947 0036 0022     		movs	r2, #0
 948 0038 0292     		str	r2, [sp, #8]
 151:Src/tim.c     ****   sConfigOC.OCFastMode = TIM_OCFAST_DISABLE;
 949              		.loc 1 151 0
 950 003a 0392     		str	r2, [sp, #12]
 152:Src/tim.c     ****   if (HAL_TIM_PWM_ConfigChannel(&htim2, &sConfigOC, TIM_CHANNEL_1) != HAL_OK)
ARM GAS  C:\Users\kotaro\AppData\Local\Temp\ccVB0Tf6.s 			page 26


 951              		.loc 1 152 0
 952 003c 0592     		str	r2, [sp, #20]
 153:Src/tim.c     ****   {
 953              		.loc 1 153 0
 954 003e 01A9     		add	r1, sp, #4
 955 0040 0C48     		ldr	r0, .L86
 956 0042 FFF7FEFF 		bl	HAL_TIM_PWM_ConfigChannel
 957              	.LVL52:
 958 0046 78B9     		cbnz	r0, .L85
 959              	.L81:
 158:Src/tim.c     **** 
 960              		.loc 1 158 0
 961 0048 0A48     		ldr	r0, .L86
 962 004a FFF7FEFF 		bl	HAL_TIM_MspPostInit
 963              	.LVL53:
 160:Src/tim.c     **** /* TIM3 init function */
 964              		.loc 1 160 0
 965 004e 0BB0     		add	sp, sp, #44
 966              	.LCFI32:
 967              		.cfi_remember_state
 968              		.cfi_def_cfa_offset 4
 969              		@ sp needed
 970 0050 5DF804FB 		ldr	pc, [sp], #4
 971              	.L83:
 972              	.LCFI33:
 973              		.cfi_restore_state
 139:Src/tim.c     ****   }
 974              		.loc 1 139 0
 975 0054 8B21     		movs	r1, #139
 976 0056 0848     		ldr	r0, .L86+4
 977 0058 FFF7FEFF 		bl	_Error_Handler
 978              	.LVL54:
 979 005c E1E7     		b	.L79
 980              	.L84:
 146:Src/tim.c     ****   }
 981              		.loc 1 146 0
 982 005e 9221     		movs	r1, #146
 983 0060 0548     		ldr	r0, .L86+4
 984 0062 FFF7FEFF 		bl	_Error_Handler
 985              	.LVL55:
 986 0066 E4E7     		b	.L80
 987              	.L85:
 155:Src/tim.c     ****   }
 988              		.loc 1 155 0
 989 0068 9B21     		movs	r1, #155
 990 006a 0348     		ldr	r0, .L86+4
 991 006c FFF7FEFF 		bl	_Error_Handler
 992              	.LVL56:
 993 0070 EAE7     		b	.L81
 994              	.L87:
 995 0072 00BF     		.align	2
 996              	.L86:
 997 0074 00000000 		.word	htim2
 998 0078 00000000 		.word	.LC0
 999              		.cfi_endproc
 1000              	.LFE160:
 1002              		.section	.text.HAL_TIM_PWM_MspDeInit,"ax",%progbits
ARM GAS  C:\Users\kotaro\AppData\Local\Temp\ccVB0Tf6.s 			page 27


 1003              		.align	1
 1004              		.global	HAL_TIM_PWM_MspDeInit
 1005              		.syntax unified
 1006              		.thumb
 1007              		.thumb_func
 1008              		.fpu fpv4-sp-d16
 1010              	HAL_TIM_PWM_MspDeInit:
 1011              	.LFB168:
 404:Src/tim.c     **** 
 405:Src/tim.c     **** void HAL_TIM_PWM_MspDeInit(TIM_HandleTypeDef* tim_pwmHandle)
 406:Src/tim.c     **** {
 1012              		.loc 1 406 0
 1013              		.cfi_startproc
 1014              		@ args = 0, pretend = 0, frame = 0
 1015              		@ frame_needed = 0, uses_anonymous_args = 0
 1016              		@ link register save eliminated.
 1017              	.LVL57:
 407:Src/tim.c     **** 
 408:Src/tim.c     ****   if(tim_pwmHandle->Instance==TIM1)
 1018              		.loc 1 408 0
 1019 0000 0368     		ldr	r3, [r0]
 1020 0002 0A4A     		ldr	r2, .L93
 1021 0004 9342     		cmp	r3, r2
 1022 0006 03D0     		beq	.L91
 409:Src/tim.c     ****   {
 410:Src/tim.c     ****   /* USER CODE BEGIN TIM1_MspDeInit 0 */
 411:Src/tim.c     **** 
 412:Src/tim.c     ****   /* USER CODE END TIM1_MspDeInit 0 */
 413:Src/tim.c     ****     /* Peripheral clock disable */
 414:Src/tim.c     ****     __HAL_RCC_TIM1_CLK_DISABLE();
 415:Src/tim.c     ****   /* USER CODE BEGIN TIM1_MspDeInit 1 */
 416:Src/tim.c     **** 
 417:Src/tim.c     ****   /* USER CODE END TIM1_MspDeInit 1 */
 418:Src/tim.c     ****   }
 419:Src/tim.c     ****   else if(tim_pwmHandle->Instance==TIM2)
 1023              		.loc 1 419 0
 1024 0008 B3F1804F 		cmp	r3, #1073741824
 1025 000c 07D0     		beq	.L92
 1026              	.L88:
 420:Src/tim.c     ****   {
 421:Src/tim.c     ****   /* USER CODE BEGIN TIM2_MspDeInit 0 */
 422:Src/tim.c     **** 
 423:Src/tim.c     ****   /* USER CODE END TIM2_MspDeInit 0 */
 424:Src/tim.c     ****     /* Peripheral clock disable */
 425:Src/tim.c     ****     __HAL_RCC_TIM2_CLK_DISABLE();
 426:Src/tim.c     ****   /* USER CODE BEGIN TIM2_MspDeInit 1 */
 427:Src/tim.c     **** 
 428:Src/tim.c     ****   /* USER CODE END TIM2_MspDeInit 1 */
 429:Src/tim.c     ****   }
 430:Src/tim.c     **** }
 1027              		.loc 1 430 0
 1028 000e 7047     		bx	lr
 1029              	.L91:
 414:Src/tim.c     ****   /* USER CODE BEGIN TIM1_MspDeInit 1 */
 1030              		.loc 1 414 0
 1031 0010 02F59C32 		add	r2, r2, #79872
 1032 0014 536C     		ldr	r3, [r2, #68]
ARM GAS  C:\Users\kotaro\AppData\Local\Temp\ccVB0Tf6.s 			page 28


 1033 0016 23F00103 		bic	r3, r3, #1
 1034 001a 5364     		str	r3, [r2, #68]
 1035 001c 7047     		bx	lr
 1036              	.L92:
 425:Src/tim.c     ****   /* USER CODE BEGIN TIM2_MspDeInit 1 */
 1037              		.loc 1 425 0
 1038 001e 044A     		ldr	r2, .L93+4
 1039 0020 136C     		ldr	r3, [r2, #64]
 1040 0022 23F00103 		bic	r3, r3, #1
 1041 0026 1364     		str	r3, [r2, #64]
 1042              		.loc 1 430 0
 1043 0028 F1E7     		b	.L88
 1044              	.L94:
 1045 002a 00BF     		.align	2
 1046              	.L93:
 1047 002c 00000140 		.word	1073807360
 1048 0030 00380240 		.word	1073887232
 1049              		.cfi_endproc
 1050              	.LFE168:
 1052              		.section	.text.HAL_TIM_Encoder_MspDeInit,"ax",%progbits
 1053              		.align	1
 1054              		.global	HAL_TIM_Encoder_MspDeInit
 1055              		.syntax unified
 1056              		.thumb
 1057              		.thumb_func
 1058              		.fpu fpv4-sp-d16
 1060              	HAL_TIM_Encoder_MspDeInit:
 1061              	.LFB169:
 431:Src/tim.c     **** 
 432:Src/tim.c     **** void HAL_TIM_Encoder_MspDeInit(TIM_HandleTypeDef* tim_encoderHandle)
 433:Src/tim.c     **** {
 1062              		.loc 1 433 0
 1063              		.cfi_startproc
 1064              		@ args = 0, pretend = 0, frame = 0
 1065              		@ frame_needed = 0, uses_anonymous_args = 0
 1066              	.LVL58:
 1067 0000 08B5     		push	{r3, lr}
 1068              	.LCFI34:
 1069              		.cfi_def_cfa_offset 8
 1070              		.cfi_offset 3, -8
 1071              		.cfi_offset 14, -4
 434:Src/tim.c     **** 
 435:Src/tim.c     ****   if(tim_encoderHandle->Instance==TIM3)
 1072              		.loc 1 435 0
 1073 0002 0368     		ldr	r3, [r0]
 1074 0004 0E4A     		ldr	r2, .L101
 1075 0006 9342     		cmp	r3, r2
 1076 0008 03D0     		beq	.L99
 436:Src/tim.c     ****   {
 437:Src/tim.c     ****   /* USER CODE BEGIN TIM3_MspDeInit 0 */
 438:Src/tim.c     **** 
 439:Src/tim.c     ****   /* USER CODE END TIM3_MspDeInit 0 */
 440:Src/tim.c     ****     /* Peripheral clock disable */
 441:Src/tim.c     ****     __HAL_RCC_TIM3_CLK_DISABLE();
 442:Src/tim.c     ****   
 443:Src/tim.c     ****     /**TIM3 GPIO Configuration    
 444:Src/tim.c     ****     PA6     ------> TIM3_CH1
ARM GAS  C:\Users\kotaro\AppData\Local\Temp\ccVB0Tf6.s 			page 29


 445:Src/tim.c     ****     PA7     ------> TIM3_CH2 
 446:Src/tim.c     ****     */
 447:Src/tim.c     ****     HAL_GPIO_DeInit(GPIOA, GPIO_PIN_6|GPIO_PIN_7);
 448:Src/tim.c     **** 
 449:Src/tim.c     ****   /* USER CODE BEGIN TIM3_MspDeInit 1 */
 450:Src/tim.c     **** 
 451:Src/tim.c     ****   /* USER CODE END TIM3_MspDeInit 1 */
 452:Src/tim.c     ****   }
 453:Src/tim.c     ****   else if(tim_encoderHandle->Instance==TIM4)
 1077              		.loc 1 453 0
 1078 000a 0E4A     		ldr	r2, .L101+4
 1079 000c 9342     		cmp	r3, r2
 1080 000e 0BD0     		beq	.L100
 1081              	.LVL59:
 1082              	.L95:
 454:Src/tim.c     ****   {
 455:Src/tim.c     ****   /* USER CODE BEGIN TIM4_MspDeInit 0 */
 456:Src/tim.c     **** 
 457:Src/tim.c     ****   /* USER CODE END TIM4_MspDeInit 0 */
 458:Src/tim.c     ****     /* Peripheral clock disable */
 459:Src/tim.c     ****     __HAL_RCC_TIM4_CLK_DISABLE();
 460:Src/tim.c     ****   
 461:Src/tim.c     ****     /**TIM4 GPIO Configuration    
 462:Src/tim.c     ****     PB6     ------> TIM4_CH1
 463:Src/tim.c     ****     PB7     ------> TIM4_CH2 
 464:Src/tim.c     ****     */
 465:Src/tim.c     ****     HAL_GPIO_DeInit(GPIOB, GPIO_PIN_6|GPIO_PIN_7);
 466:Src/tim.c     **** 
 467:Src/tim.c     ****   /* USER CODE BEGIN TIM4_MspDeInit 1 */
 468:Src/tim.c     **** 
 469:Src/tim.c     ****   /* USER CODE END TIM4_MspDeInit 1 */
 470:Src/tim.c     ****   }
 471:Src/tim.c     **** }
 1083              		.loc 1 471 0
 1084 0010 08BD     		pop	{r3, pc}
 1085              	.LVL60:
 1086              	.L99:
 441:Src/tim.c     ****   
 1087              		.loc 1 441 0
 1088 0012 02F50D32 		add	r2, r2, #144384
 1089 0016 136C     		ldr	r3, [r2, #64]
 1090 0018 23F00203 		bic	r3, r3, #2
 1091 001c 1364     		str	r3, [r2, #64]
 447:Src/tim.c     **** 
 1092              		.loc 1 447 0
 1093 001e C021     		movs	r1, #192
 1094 0020 0948     		ldr	r0, .L101+8
 1095              	.LVL61:
 1096 0022 FFF7FEFF 		bl	HAL_GPIO_DeInit
 1097              	.LVL62:
 1098 0026 F3E7     		b	.L95
 1099              	.LVL63:
 1100              	.L100:
 459:Src/tim.c     ****   
 1101              		.loc 1 459 0
 1102 0028 02F50C32 		add	r2, r2, #143360
 1103 002c 136C     		ldr	r3, [r2, #64]
ARM GAS  C:\Users\kotaro\AppData\Local\Temp\ccVB0Tf6.s 			page 30


 1104 002e 23F00403 		bic	r3, r3, #4
 1105 0032 1364     		str	r3, [r2, #64]
 465:Src/tim.c     **** 
 1106              		.loc 1 465 0
 1107 0034 C021     		movs	r1, #192
 1108 0036 0548     		ldr	r0, .L101+12
 1109              	.LVL64:
 1110 0038 FFF7FEFF 		bl	HAL_GPIO_DeInit
 1111              	.LVL65:
 1112              		.loc 1 471 0
 1113 003c E8E7     		b	.L95
 1114              	.L102:
 1115 003e 00BF     		.align	2
 1116              	.L101:
 1117 0040 00040040 		.word	1073742848
 1118 0044 00080040 		.word	1073743872
 1119 0048 00000240 		.word	1073872896
 1120 004c 00040240 		.word	1073873920
 1121              		.cfi_endproc
 1122              	.LFE169:
 1124              		.section	.text.HAL_TIM_Base_MspDeInit,"ax",%progbits
 1125              		.align	1
 1126              		.global	HAL_TIM_Base_MspDeInit
 1127              		.syntax unified
 1128              		.thumb
 1129              		.thumb_func
 1130              		.fpu fpv4-sp-d16
 1132              	HAL_TIM_Base_MspDeInit:
 1133              	.LFB170:
 472:Src/tim.c     **** 
 473:Src/tim.c     **** void HAL_TIM_Base_MspDeInit(TIM_HandleTypeDef* tim_baseHandle)
 474:Src/tim.c     **** {
 1134              		.loc 1 474 0
 1135              		.cfi_startproc
 1136              		@ args = 0, pretend = 0, frame = 0
 1137              		@ frame_needed = 0, uses_anonymous_args = 0
 1138              	.LVL66:
 1139 0000 08B5     		push	{r3, lr}
 1140              	.LCFI35:
 1141              		.cfi_def_cfa_offset 8
 1142              		.cfi_offset 3, -8
 1143              		.cfi_offset 14, -4
 475:Src/tim.c     **** 
 476:Src/tim.c     ****   if(tim_baseHandle->Instance==TIM5)
 1144              		.loc 1 476 0
 1145 0002 0268     		ldr	r2, [r0]
 1146 0004 064B     		ldr	r3, .L107
 1147 0006 9A42     		cmp	r2, r3
 1148 0008 00D0     		beq	.L106
 1149              	.LVL67:
 1150              	.L103:
 477:Src/tim.c     ****   {
 478:Src/tim.c     ****   /* USER CODE BEGIN TIM5_MspDeInit 0 */
 479:Src/tim.c     **** 
 480:Src/tim.c     ****   /* USER CODE END TIM5_MspDeInit 0 */
 481:Src/tim.c     ****     /* Peripheral clock disable */
 482:Src/tim.c     ****     __HAL_RCC_TIM5_CLK_DISABLE();
ARM GAS  C:\Users\kotaro\AppData\Local\Temp\ccVB0Tf6.s 			page 31


 483:Src/tim.c     **** 
 484:Src/tim.c     ****     /* TIM5 interrupt Deinit */
 485:Src/tim.c     ****     HAL_NVIC_DisableIRQ(TIM5_IRQn);
 486:Src/tim.c     ****   /* USER CODE BEGIN TIM5_MspDeInit 1 */
 487:Src/tim.c     **** 
 488:Src/tim.c     ****   /* USER CODE END TIM5_MspDeInit 1 */
 489:Src/tim.c     ****   }
 490:Src/tim.c     **** } 
 1151              		.loc 1 490 0
 1152 000a 08BD     		pop	{r3, pc}
 1153              	.LVL68:
 1154              	.L106:
 482:Src/tim.c     **** 
 1155              		.loc 1 482 0
 1156 000c 054A     		ldr	r2, .L107+4
 1157 000e 136C     		ldr	r3, [r2, #64]
 1158 0010 23F00803 		bic	r3, r3, #8
 1159 0014 1364     		str	r3, [r2, #64]
 485:Src/tim.c     ****   /* USER CODE BEGIN TIM5_MspDeInit 1 */
 1160              		.loc 1 485 0
 1161 0016 3220     		movs	r0, #50
 1162              	.LVL69:
 1163 0018 FFF7FEFF 		bl	HAL_NVIC_DisableIRQ
 1164              	.LVL70:
 1165              		.loc 1 490 0
 1166 001c F5E7     		b	.L103
 1167              	.L108:
 1168 001e 00BF     		.align	2
 1169              	.L107:
 1170 0020 000C0040 		.word	1073744896
 1171 0024 00380240 		.word	1073887232
 1172              		.cfi_endproc
 1173              	.LFE170:
 1175              		.section	.text.Buzzer_pwm,"ax",%progbits
 1176              		.align	1
 1177              		.global	Buzzer_pwm
 1178              		.syntax unified
 1179              		.thumb
 1180              		.thumb_func
 1181              		.fpu fpv4-sp-d16
 1183              	Buzzer_pwm:
 1184              	.LFB171:
 491:Src/tim.c     **** 
 492:Src/tim.c     **** /* USER CODE BEGIN 1 */
 493:Src/tim.c     **** 
 494:Src/tim.c     **** /****************************************************************************************
 495:Src/tim.c     ****  * outline  : out put pwm of buzzer
 496:Src/tim.c     ****  * argument : hz(frequency),vol(volume 0~Period)
 497:Src/tim.c     ****  * return   : void
 498:Src/tim.c     **** ********************************************************************************************/
 499:Src/tim.c     **** void Buzzer_pwm(int hz,int vol)
 500:Src/tim.c     **** {
 1185              		.loc 1 500 0
 1186              		.cfi_startproc
 1187              		@ args = 0, pretend = 0, frame = 0
 1188              		@ frame_needed = 0, uses_anonymous_args = 0
 1189              	.LVL71:
ARM GAS  C:\Users\kotaro\AppData\Local\Temp\ccVB0Tf6.s 			page 32


 1190 0000 10B5     		push	{r4, lr}
 1191              	.LCFI36:
 1192              		.cfi_def_cfa_offset 8
 1193              		.cfi_offset 4, -8
 1194              		.cfi_offset 14, -4
 1195 0002 0C46     		mov	r4, r1
 501:Src/tim.c     ****   htim2.Instance = TIM2;
 1196              		.loc 1 501 0
 1197 0004 1A4B     		ldr	r3, .L117
 1198 0006 4FF08042 		mov	r2, #1073741824
 1199 000a 1A60     		str	r2, [r3]
 502:Src/tim.c     ****   htim2.Init.Prescaler = hz;
 1200              		.loc 1 502 0
 1201 000c 5860     		str	r0, [r3, #4]
 503:Src/tim.c     ****   htim2.Init.CounterMode = TIM_COUNTERMODE_UP;
 1202              		.loc 1 503 0
 1203 000e 0022     		movs	r2, #0
 1204 0010 9A60     		str	r2, [r3, #8]
 504:Src/tim.c     ****   htim2.Init.Period = 1999;
 1205              		.loc 1 504 0
 1206 0012 40F2CF71 		movw	r1, #1999
 1207              	.LVL72:
 1208 0016 D960     		str	r1, [r3, #12]
 505:Src/tim.c     ****   htim2.Init.ClockDivision = TIM_CLOCKDIVISION_DIV1;
 1209              		.loc 1 505 0
 1210 0018 1A61     		str	r2, [r3, #16]
 506:Src/tim.c     ****   htim2.Init.RepetitionCounter = 0;
 1211              		.loc 1 506 0
 1212 001a 5A61     		str	r2, [r3, #20]
 507:Src/tim.c     ****   if (HAL_TIM_PWM_Init(&htim2) != HAL_OK)
 1213              		.loc 1 507 0
 1214 001c 1846     		mov	r0, r3
 1215              	.LVL73:
 1216 001e FFF7FEFF 		bl	HAL_TIM_PWM_Init
 1217              	.LVL74:
 1218 0022 98B9     		cbnz	r0, .L114
 1219              	.L110:
 508:Src/tim.c     ****   {
 509:Src/tim.c     ****     _Error_Handler(__FILE__, __LINE__);
 510:Src/tim.c     ****   }
 511:Src/tim.c     **** 
 512:Src/tim.c     ****   sConfigOC.OCMode = TIM_OCMODE_PWM1;
 1220              		.loc 1 512 0
 1221 0024 1349     		ldr	r1, .L117+4
 1222 0026 6023     		movs	r3, #96
 1223 0028 0B60     		str	r3, [r1]
 513:Src/tim.c     ****   sConfigOC.Pulse = vol;
 1224              		.loc 1 513 0
 1225 002a 4C60     		str	r4, [r1, #4]
 514:Src/tim.c     ****   sConfigOC.OCPolarity = TIM_OCPOLARITY_HIGH;
 1226              		.loc 1 514 0
 1227 002c 0022     		movs	r2, #0
 1228 002e 8A60     		str	r2, [r1, #8]
 515:Src/tim.c     ****   sConfigOC.OCNPolarity = TIM_OCNPOLARITY_HIGH;
 1229              		.loc 1 515 0
 1230 0030 CA60     		str	r2, [r1, #12]
 516:Src/tim.c     ****   sConfigOC.OCFastMode = TIM_OCFAST_DISABLE;
ARM GAS  C:\Users\kotaro\AppData\Local\Temp\ccVB0Tf6.s 			page 33


 1231              		.loc 1 516 0
 1232 0032 0A61     		str	r2, [r1, #16]
 517:Src/tim.c     ****   sConfigOC.OCIdleState = TIM_OCIDLESTATE_RESET;
 1233              		.loc 1 517 0
 1234 0034 4A61     		str	r2, [r1, #20]
 518:Src/tim.c     ****   sConfigOC.OCNIdleState = TIM_OCNIDLESTATE_RESET;
 1235              		.loc 1 518 0
 1236 0036 8A61     		str	r2, [r1, #24]
 519:Src/tim.c     ****   if (HAL_TIM_PWM_ConfigChannel(&htim2, &sConfigOC, TIM_CHANNEL_1) != HAL_OK)
 1237              		.loc 1 519 0
 1238 0038 0D48     		ldr	r0, .L117
 1239 003a FFF7FEFF 		bl	HAL_TIM_PWM_ConfigChannel
 1240              	.LVL75:
 1241 003e 58B9     		cbnz	r0, .L115
 1242              	.L111:
 520:Src/tim.c     ****   {
 521:Src/tim.c     ****     _Error_Handler(__FILE__, __LINE__);
 522:Src/tim.c     ****   }
 523:Src/tim.c     **** 
 524:Src/tim.c     ****   if(HAL_TIM_PWM_Start(&htim2,TIM_CHANNEL_1)!=HAL_OK){
 1243              		.loc 1 524 0
 1244 0040 0021     		movs	r1, #0
 1245 0042 0B48     		ldr	r0, .L117
 1246 0044 FFF7FEFF 		bl	HAL_TIM_PWM_Start
 1247              	.LVL76:
 1248 0048 60B9     		cbnz	r0, .L116
 1249              	.L109:
 525:Src/tim.c     ****     Error_Handler();
 526:Src/tim.c     ****   }
 527:Src/tim.c     **** }
 1250              		.loc 1 527 0
 1251 004a 10BD     		pop	{r4, pc}
 1252              	.LVL77:
 1253              	.L114:
 509:Src/tim.c     ****   }
 1254              		.loc 1 509 0
 1255 004c 40F2FD11 		movw	r1, #509
 1256 0050 0948     		ldr	r0, .L117+8
 1257 0052 FFF7FEFF 		bl	_Error_Handler
 1258              	.LVL78:
 1259 0056 E5E7     		b	.L110
 1260              	.L115:
 521:Src/tim.c     ****   }
 1261              		.loc 1 521 0
 1262 0058 40F20921 		movw	r1, #521
 1263 005c 0648     		ldr	r0, .L117+8
 1264 005e FFF7FEFF 		bl	_Error_Handler
 1265              	.LVL79:
 1266 0062 EDE7     		b	.L111
 1267              	.L116:
 525:Src/tim.c     ****     Error_Handler();
 1268              		.loc 1 525 0
 1269 0064 40F20D21 		movw	r1, #525
 1270 0068 0348     		ldr	r0, .L117+8
 1271 006a FFF7FEFF 		bl	_Error_Handler
 1272              	.LVL80:
 1273              		.loc 1 527 0
ARM GAS  C:\Users\kotaro\AppData\Local\Temp\ccVB0Tf6.s 			page 34


 1274 006e ECE7     		b	.L109
 1275              	.L118:
 1276              		.align	2
 1277              	.L117:
 1278 0070 00000000 		.word	htim2
 1279 0074 00000000 		.word	sConfigOC
 1280 0078 00000000 		.word	.LC0
 1281              		.cfi_endproc
 1282              	.LFE171:
 1284              		.section	.text.Motor_pwm,"ax",%progbits
 1285              		.align	1
 1286              		.global	Motor_pwm
 1287              		.syntax unified
 1288              		.thumb
 1289              		.thumb_func
 1290              		.fpu fpv4-sp-d16
 1292              	Motor_pwm:
 1293              	.LFB172:
 528:Src/tim.c     **** 
 529:Src/tim.c     **** /****************************************************************************************
 530:Src/tim.c     ****  * outline  : out put pwm of motor
 531:Src/tim.c     ****  * argument : left pwm , reft pwm (-Period~Period,max 800)
 532:Src/tim.c     ****  * return   : void
 533:Src/tim.c     **** ********************************************************************************************/
 534:Src/tim.c     **** void Motor_pwm(int16_t left_pwm,int16_t right_pwm){
 1294              		.loc 1 534 0
 1295              		.cfi_startproc
 1296              		@ args = 0, pretend = 0, frame = 0
 1297              		@ frame_needed = 0, uses_anonymous_args = 0
 1298              	.LVL81:
 1299 0000 38B5     		push	{r3, r4, r5, lr}
 1300              	.LCFI37:
 1301              		.cfi_def_cfa_offset 16
 1302              		.cfi_offset 3, -16
 1303              		.cfi_offset 4, -12
 1304              		.cfi_offset 5, -8
 1305              		.cfi_offset 14, -4
 1306 0002 0C46     		mov	r4, r1
 535:Src/tim.c     ****   sConfigOC.OCMode = TIM_OCMODE_PWM1;
 1307              		.loc 1 535 0
 1308 0004 624B     		ldr	r3, .L151
 1309 0006 6022     		movs	r2, #96
 1310 0008 1A60     		str	r2, [r3]
 536:Src/tim.c     ****   sConfigOC.OCPolarity = TIM_OCPOLARITY_HIGH;
 1311              		.loc 1 536 0
 1312 000a 0022     		movs	r2, #0
 1313 000c 9A60     		str	r2, [r3, #8]
 537:Src/tim.c     ****   sConfigOC.OCNPolarity = TIM_OCNPOLARITY_HIGH;
 1314              		.loc 1 537 0
 1315 000e DA60     		str	r2, [r3, #12]
 538:Src/tim.c     ****   sConfigOC.OCFastMode = TIM_OCFAST_DISABLE;
 1316              		.loc 1 538 0
 1317 0010 1A61     		str	r2, [r3, #16]
 539:Src/tim.c     ****   sConfigOC.OCIdleState = TIM_OCIDLESTATE_RESET;
 1318              		.loc 1 539 0
 1319 0012 5A61     		str	r2, [r3, #20]
 540:Src/tim.c     ****   sConfigOC.OCNIdleState = TIM_OCNIDLESTATE_RESET;
ARM GAS  C:\Users\kotaro\AppData\Local\Temp\ccVB0Tf6.s 			page 35


 1320              		.loc 1 540 0
 1321 0014 9A61     		str	r2, [r3, #24]
 541:Src/tim.c     **** 
 542:Src/tim.c     ****   //max and min
 543:Src/tim.c     ****   if(left_pwm > 799){
 1322              		.loc 1 543 0
 1323 0016 B0F5487F 		cmp	r0, #800
 1324 001a 05DA     		bge	.L134
 1325 001c 0546     		mov	r5, r0
 544:Src/tim.c     ****     left_pwm = 799;
 545:Src/tim.c     ****   }
 546:Src/tim.c     ****   if(left_pwm < -799){
 1326              		.loc 1 546 0
 1327 001e 10F5487F 		cmn	r0, #800
 1328 0022 03DC     		bgt	.L120
 547:Src/tim.c     ****     left_pwm = -799;
 1329              		.loc 1 547 0
 1330 0024 5B4D     		ldr	r5, .L151+4
 1331 0026 01E0     		b	.L120
 1332              	.L134:
 544:Src/tim.c     ****     left_pwm = 799;
 1333              		.loc 1 544 0
 1334 0028 40F21F35 		movw	r5, #799
 1335              	.L120:
 1336              	.LVL82:
 548:Src/tim.c     ****   }
 549:Src/tim.c     **** 
 550:Src/tim.c     ****   if(right_pwm > 799){
 1337              		.loc 1 550 0
 1338 002c B4F5487F 		cmp	r4, #800
 1339 0030 04DA     		bge	.L136
 1340              	.LVL83:
 551:Src/tim.c     ****     right_pwm = 799;
 552:Src/tim.c     ****   }
 553:Src/tim.c     ****   if(right_pwm < -799){
 1341              		.loc 1 553 0
 1342 0032 14F5487F 		cmn	r4, #800
 1343 0036 03DC     		bgt	.L121
 554:Src/tim.c     ****     right_pwm = -799;
 1344              		.loc 1 554 0
 1345 0038 564C     		ldr	r4, .L151+4
 1346              	.LVL84:
 1347 003a 01E0     		b	.L121
 1348              	.LVL85:
 1349              	.L136:
 551:Src/tim.c     ****     right_pwm = 799;
 1350              		.loc 1 551 0
 1351 003c 40F21F34 		movw	r4, #799
 1352              	.LVL86:
 1353              	.L121:
 555:Src/tim.c     ****   }
 556:Src/tim.c     **** 
 557:Src/tim.c     ****   //set left_pwm
 558:Src/tim.c     ****   if(left_pwm < 0){
 1354              		.loc 1 558 0
 1355 0040 002D     		cmp	r5, #0
 1356 0042 3BDB     		blt	.L139
ARM GAS  C:\Users\kotaro\AppData\Local\Temp\ccVB0Tf6.s 			page 36


 559:Src/tim.c     ****     sConfigOC.Pulse = -1 * left_pwm;
 560:Src/tim.c     ****     if (HAL_TIM_PWM_ConfigChannel(&htim1, &sConfigOC, TIM_CHANNEL_1) != HAL_OK)
 561:Src/tim.c     ****     {
 562:Src/tim.c     ****       _Error_Handler(__FILE__, __LINE__);
 563:Src/tim.c     ****     }
 564:Src/tim.c     ****     sConfigOC.Pulse = 0;
 565:Src/tim.c     ****     if (HAL_TIM_PWM_ConfigChannel(&htim1, &sConfigOC, TIM_CHANNEL_2) != HAL_OK)
 566:Src/tim.c     ****     {
 567:Src/tim.c     ****       _Error_Handler(__FILE__, __LINE__);
 568:Src/tim.c     ****     }
 569:Src/tim.c     ****   }
 570:Src/tim.c     ****   else  if(left_pwm >= 0){
 571:Src/tim.c     ****     sConfigOC.Pulse = 0;
 1357              		.loc 1 571 0
 1358 0044 5249     		ldr	r1, .L151
 1359 0046 0022     		movs	r2, #0
 1360 0048 4A60     		str	r2, [r1, #4]
 572:Src/tim.c     ****     if (HAL_TIM_PWM_ConfigChannel(&htim1, &sConfigOC, TIM_CHANNEL_1) != HAL_OK)
 1361              		.loc 1 572 0
 1362 004a 5348     		ldr	r0, .L151+8
 1363 004c FFF7FEFF 		bl	HAL_TIM_PWM_ConfigChannel
 1364              	.LVL87:
 1365 0050 0028     		cmp	r0, #0
 1366 0052 50D1     		bne	.L140
 1367              	.L125:
 573:Src/tim.c     ****     {
 574:Src/tim.c     ****       _Error_Handler(__FILE__, __LINE__);
 575:Src/tim.c     ****     }
 576:Src/tim.c     ****     sConfigOC.Pulse = left_pwm;
 1368              		.loc 1 576 0
 1369 0054 4E49     		ldr	r1, .L151
 1370 0056 4D60     		str	r5, [r1, #4]
 577:Src/tim.c     ****     if (HAL_TIM_PWM_ConfigChannel(&htim1, &sConfigOC, TIM_CHANNEL_2) != HAL_OK)
 1371              		.loc 1 577 0
 1372 0058 0422     		movs	r2, #4
 1373 005a 4F48     		ldr	r0, .L151+8
 1374 005c FFF7FEFF 		bl	HAL_TIM_PWM_ConfigChannel
 1375              	.LVL88:
 1376 0060 0028     		cmp	r0, #0
 1377 0062 4ED1     		bne	.L141
 1378              	.LVL89:
 1379              	.L124:
 578:Src/tim.c     ****     {
 579:Src/tim.c     ****       _Error_Handler(__FILE__, __LINE__);
 580:Src/tim.c     ****     }
 581:Src/tim.c     ****   }
 582:Src/tim.c     **** 
 583:Src/tim.c     ****   //set right_pwm
 584:Src/tim.c     ****   if(right_pwm < 0){
 1380              		.loc 1 584 0
 1381 0064 002C     		cmp	r4, #0
 1382 0066 52DB     		blt	.L142
 585:Src/tim.c     ****     sConfigOC.Pulse = -1 * right_pwm;
 586:Src/tim.c     ****     if (HAL_TIM_PWM_ConfigChannel(&htim1, &sConfigOC, TIM_CHANNEL_4) != HAL_OK)
 587:Src/tim.c     ****     {
 588:Src/tim.c     ****       _Error_Handler(__FILE__, __LINE__);
 589:Src/tim.c     ****     }
ARM GAS  C:\Users\kotaro\AppData\Local\Temp\ccVB0Tf6.s 			page 37


 590:Src/tim.c     ****     sConfigOC.Pulse = 0;
 591:Src/tim.c     ****     if (HAL_TIM_PWM_ConfigChannel(&htim1, &sConfigOC, TIM_CHANNEL_3) != HAL_OK)
 592:Src/tim.c     ****     {
 593:Src/tim.c     ****       _Error_Handler(__FILE__, __LINE__);
 594:Src/tim.c     ****     }
 595:Src/tim.c     ****   }
 596:Src/tim.c     ****   else if(right_pwm >= 0){
 597:Src/tim.c     ****     sConfigOC.Pulse = 0;
 1383              		.loc 1 597 0
 1384 0068 4949     		ldr	r1, .L151
 1385 006a 0023     		movs	r3, #0
 1386 006c 4B60     		str	r3, [r1, #4]
 598:Src/tim.c     ****     if (HAL_TIM_PWM_ConfigChannel(&htim1, &sConfigOC, TIM_CHANNEL_4) != HAL_OK)
 1387              		.loc 1 598 0
 1388 006e 0C22     		movs	r2, #12
 1389 0070 4948     		ldr	r0, .L151+8
 1390 0072 FFF7FEFF 		bl	HAL_TIM_PWM_ConfigChannel
 1391              	.LVL90:
 1392 0076 0028     		cmp	r0, #0
 1393 0078 66D1     		bne	.L143
 1394              	.L129:
 599:Src/tim.c     ****     {
 600:Src/tim.c     ****       _Error_Handler(__FILE__, __LINE__);
 601:Src/tim.c     ****     }
 602:Src/tim.c     ****     sConfigOC.Pulse = right_pwm;
 1395              		.loc 1 602 0
 1396 007a 4549     		ldr	r1, .L151
 1397 007c 4C60     		str	r4, [r1, #4]
 603:Src/tim.c     ****     if (HAL_TIM_PWM_ConfigChannel(&htim1, &sConfigOC, TIM_CHANNEL_3) != HAL_OK)
 1398              		.loc 1 603 0
 1399 007e 0822     		movs	r2, #8
 1400 0080 4548     		ldr	r0, .L151+8
 1401 0082 FFF7FEFF 		bl	HAL_TIM_PWM_ConfigChannel
 1402              	.LVL91:
 1403 0086 0028     		cmp	r0, #0
 1404 0088 64D1     		bne	.L144
 1405              	.LVL92:
 1406              	.L128:
 604:Src/tim.c     ****     {
 605:Src/tim.c     ****       _Error_Handler(__FILE__, __LINE__);
 606:Src/tim.c     ****     }
 607:Src/tim.c     ****   }
 608:Src/tim.c     **** 
 609:Src/tim.c     ****   //start
 610:Src/tim.c     ****   if (HAL_TIM_PWM_Start(&htim1, TIM_CHANNEL_1) != HAL_OK){
 1407              		.loc 1 610 0
 1408 008a 0021     		movs	r1, #0
 1409 008c 4248     		ldr	r0, .L151+8
 1410 008e FFF7FEFF 		bl	HAL_TIM_PWM_Start
 1411              	.LVL93:
 1412 0092 0028     		cmp	r0, #0
 1413 0094 64D1     		bne	.L145
 1414              	.L130:
 611:Src/tim.c     **** 		Error_Handler();
 612:Src/tim.c     **** 	}
 613:Src/tim.c     ****   if (HAL_TIM_PWM_Start(&htim1, TIM_CHANNEL_2) != HAL_OK){
 1415              		.loc 1 613 0
ARM GAS  C:\Users\kotaro\AppData\Local\Temp\ccVB0Tf6.s 			page 38


 1416 0096 0421     		movs	r1, #4
 1417 0098 3F48     		ldr	r0, .L151+8
 1418 009a FFF7FEFF 		bl	HAL_TIM_PWM_Start
 1419              	.LVL94:
 1420 009e 0028     		cmp	r0, #0
 1421 00a0 64D1     		bne	.L146
 1422              	.L131:
 614:Src/tim.c     **** 		Error_Handler();
 615:Src/tim.c     **** 	}
 616:Src/tim.c     ****   if (HAL_TIM_PWM_Start(&htim1, TIM_CHANNEL_3) != HAL_OK){
 1423              		.loc 1 616 0
 1424 00a2 0821     		movs	r1, #8
 1425 00a4 3C48     		ldr	r0, .L151+8
 1426 00a6 FFF7FEFF 		bl	HAL_TIM_PWM_Start
 1427              	.LVL95:
 1428 00aa 0028     		cmp	r0, #0
 1429 00ac 64D1     		bne	.L147
 1430              	.L132:
 617:Src/tim.c     **** 		Error_Handler();
 618:Src/tim.c     **** 	}
 619:Src/tim.c     ****   if (HAL_TIM_PWM_Start(&htim1, TIM_CHANNEL_4) != HAL_OK){
 1431              		.loc 1 619 0
 1432 00ae 0C21     		movs	r1, #12
 1433 00b0 3948     		ldr	r0, .L151+8
 1434 00b2 FFF7FEFF 		bl	HAL_TIM_PWM_Start
 1435              	.LVL96:
 1436 00b6 0028     		cmp	r0, #0
 1437 00b8 64D1     		bne	.L148
 1438              	.L119:
 620:Src/tim.c     **** 		Error_Handler();
 621:Src/tim.c     **** 	}
 622:Src/tim.c     **** }
 1439              		.loc 1 622 0
 1440 00ba 38BD     		pop	{r3, r4, r5, pc}
 1441              	.LVL97:
 1442              	.L139:
 559:Src/tim.c     ****     if (HAL_TIM_PWM_ConfigChannel(&htim1, &sConfigOC, TIM_CHANNEL_1) != HAL_OK)
 1443              		.loc 1 559 0
 1444 00bc 6D42     		negs	r5, r5
 1445              	.LVL98:
 1446 00be 3449     		ldr	r1, .L151
 1447 00c0 4D60     		str	r5, [r1, #4]
 560:Src/tim.c     ****     {
 1448              		.loc 1 560 0
 1449 00c2 0022     		movs	r2, #0
 1450 00c4 3448     		ldr	r0, .L151+8
 1451 00c6 FFF7FEFF 		bl	HAL_TIM_PWM_ConfigChannel
 1452              	.LVL99:
 1453 00ca 70B9     		cbnz	r0, .L149
 1454              	.L123:
 564:Src/tim.c     ****     if (HAL_TIM_PWM_ConfigChannel(&htim1, &sConfigOC, TIM_CHANNEL_2) != HAL_OK)
 1455              		.loc 1 564 0
 1456 00cc 3049     		ldr	r1, .L151
 1457 00ce 0023     		movs	r3, #0
 1458 00d0 4B60     		str	r3, [r1, #4]
 565:Src/tim.c     ****     {
 1459              		.loc 1 565 0
ARM GAS  C:\Users\kotaro\AppData\Local\Temp\ccVB0Tf6.s 			page 39


 1460 00d2 0422     		movs	r2, #4
 1461 00d4 3048     		ldr	r0, .L151+8
 1462 00d6 FFF7FEFF 		bl	HAL_TIM_PWM_ConfigChannel
 1463              	.LVL100:
 1464 00da 0028     		cmp	r0, #0
 1465 00dc C2D0     		beq	.L124
 567:Src/tim.c     ****     }
 1466              		.loc 1 567 0
 1467 00de 40F23721 		movw	r1, #567
 1468 00e2 2E48     		ldr	r0, .L151+12
 1469 00e4 FFF7FEFF 		bl	_Error_Handler
 1470              	.LVL101:
 1471 00e8 BCE7     		b	.L124
 1472              	.L149:
 562:Src/tim.c     ****     }
 1473              		.loc 1 562 0
 1474 00ea 40F23221 		movw	r1, #562
 1475 00ee 2B48     		ldr	r0, .L151+12
 1476 00f0 FFF7FEFF 		bl	_Error_Handler
 1477              	.LVL102:
 1478 00f4 EAE7     		b	.L123
 1479              	.LVL103:
 1480              	.L140:
 574:Src/tim.c     ****     }
 1481              		.loc 1 574 0
 1482 00f6 40F23E21 		movw	r1, #574
 1483 00fa 2848     		ldr	r0, .L151+12
 1484 00fc FFF7FEFF 		bl	_Error_Handler
 1485              	.LVL104:
 1486 0100 A8E7     		b	.L125
 1487              	.L141:
 579:Src/tim.c     ****     }
 1488              		.loc 1 579 0
 1489 0102 40F24321 		movw	r1, #579
 1490 0106 2548     		ldr	r0, .L151+12
 1491 0108 FFF7FEFF 		bl	_Error_Handler
 1492              	.LVL105:
 1493 010c AAE7     		b	.L124
 1494              	.LVL106:
 1495              	.L142:
 585:Src/tim.c     ****     if (HAL_TIM_PWM_ConfigChannel(&htim1, &sConfigOC, TIM_CHANNEL_4) != HAL_OK)
 1496              		.loc 1 585 0
 1497 010e 6442     		negs	r4, r4
 1498              	.LVL107:
 1499 0110 1F49     		ldr	r1, .L151
 1500 0112 4C60     		str	r4, [r1, #4]
 586:Src/tim.c     ****     {
 1501              		.loc 1 586 0
 1502 0114 0C22     		movs	r2, #12
 1503 0116 2048     		ldr	r0, .L151+8
 1504 0118 FFF7FEFF 		bl	HAL_TIM_PWM_ConfigChannel
 1505              	.LVL108:
 1506 011c 70B9     		cbnz	r0, .L150
 1507              	.L127:
 590:Src/tim.c     ****     if (HAL_TIM_PWM_ConfigChannel(&htim1, &sConfigOC, TIM_CHANNEL_3) != HAL_OK)
 1508              		.loc 1 590 0
 1509 011e 1C49     		ldr	r1, .L151
ARM GAS  C:\Users\kotaro\AppData\Local\Temp\ccVB0Tf6.s 			page 40


 1510 0120 0023     		movs	r3, #0
 1511 0122 4B60     		str	r3, [r1, #4]
 591:Src/tim.c     ****     {
 1512              		.loc 1 591 0
 1513 0124 0822     		movs	r2, #8
 1514 0126 1C48     		ldr	r0, .L151+8
 1515 0128 FFF7FEFF 		bl	HAL_TIM_PWM_ConfigChannel
 1516              	.LVL109:
 1517 012c 0028     		cmp	r0, #0
 1518 012e ACD0     		beq	.L128
 593:Src/tim.c     ****     }
 1519              		.loc 1 593 0
 1520 0130 40F25121 		movw	r1, #593
 1521 0134 1948     		ldr	r0, .L151+12
 1522 0136 FFF7FEFF 		bl	_Error_Handler
 1523              	.LVL110:
 1524 013a A6E7     		b	.L128
 1525              	.L150:
 588:Src/tim.c     ****     }
 1526              		.loc 1 588 0
 1527 013c 4FF41371 		mov	r1, #588
 1528 0140 1648     		ldr	r0, .L151+12
 1529 0142 FFF7FEFF 		bl	_Error_Handler
 1530              	.LVL111:
 1531 0146 EAE7     		b	.L127
 1532              	.LVL112:
 1533              	.L143:
 600:Src/tim.c     ****     }
 1534              		.loc 1 600 0
 1535 0148 4FF41671 		mov	r1, #600
 1536 014c 1348     		ldr	r0, .L151+12
 1537 014e FFF7FEFF 		bl	_Error_Handler
 1538              	.LVL113:
 1539 0152 92E7     		b	.L129
 1540              	.L144:
 605:Src/tim.c     ****     }
 1541              		.loc 1 605 0
 1542 0154 40F25D21 		movw	r1, #605
 1543 0158 1048     		ldr	r0, .L151+12
 1544 015a FFF7FEFF 		bl	_Error_Handler
 1545              	.LVL114:
 1546 015e 94E7     		b	.L128
 1547              	.LVL115:
 1548              	.L145:
 611:Src/tim.c     **** 	}
 1549              		.loc 1 611 0
 1550 0160 40F26321 		movw	r1, #611
 1551 0164 0D48     		ldr	r0, .L151+12
 1552 0166 FFF7FEFF 		bl	_Error_Handler
 1553              	.LVL116:
 1554 016a 94E7     		b	.L130
 1555              	.L146:
 614:Src/tim.c     **** 	}
 1556              		.loc 1 614 0
 1557 016c 40F26621 		movw	r1, #614
 1558 0170 0A48     		ldr	r0, .L151+12
 1559 0172 FFF7FEFF 		bl	_Error_Handler
ARM GAS  C:\Users\kotaro\AppData\Local\Temp\ccVB0Tf6.s 			page 41


 1560              	.LVL117:
 1561 0176 94E7     		b	.L131
 1562              	.L147:
 617:Src/tim.c     **** 	}
 1563              		.loc 1 617 0
 1564 0178 40F26921 		movw	r1, #617
 1565 017c 0748     		ldr	r0, .L151+12
 1566 017e FFF7FEFF 		bl	_Error_Handler
 1567              	.LVL118:
 1568 0182 94E7     		b	.L132
 1569              	.L148:
 620:Src/tim.c     **** 	}
 1570              		.loc 1 620 0
 1571 0184 4FF41B71 		mov	r1, #620
 1572 0188 0448     		ldr	r0, .L151+12
 1573 018a FFF7FEFF 		bl	_Error_Handler
 1574              	.LVL119:
 1575              		.loc 1 622 0
 1576 018e 94E7     		b	.L119
 1577              	.L152:
 1578              		.align	2
 1579              	.L151:
 1580 0190 00000000 		.word	sConfigOC
 1581 0194 E1FCFFFF 		.word	-799
 1582 0198 00000000 		.word	htim1
 1583 019c 00000000 		.word	.LC0
 1584              		.cfi_endproc
 1585              	.LFE172:
 1587              		.section	.text.update_encoder,"ax",%progbits
 1588              		.align	1
 1589              		.global	update_encoder
 1590              		.syntax unified
 1591              		.thumb
 1592              		.thumb_func
 1593              		.fpu fpv4-sp-d16
 1595              	update_encoder:
 1596              	.LFB173:
 623:Src/tim.c     **** 
 624:Src/tim.c     **** 
 625:Src/tim.c     **** /****************************************************************************************
 626:Src/tim.c     ****  * outline  : update encoder value
 627:Src/tim.c     ****  * argument : void
 628:Src/tim.c     ****  * return   : void
 629:Src/tim.c     **** ********************************************************************************************/
 630:Src/tim.c     **** void update_encoder(void){
 1597              		.loc 1 630 0
 1598              		.cfi_startproc
 1599              		@ args = 0, pretend = 0, frame = 0
 1600              		@ frame_needed = 0, uses_anonymous_args = 0
 1601              		@ link register save eliminated.
 1602 0000 10B4     		push	{r4}
 1603              	.LCFI38:
 1604              		.cfi_def_cfa_offset 4
 1605              		.cfi_offset 4, -4
 631:Src/tim.c     ****   int16_t l_buff = TIM3->CNT;
 1606              		.loc 1 631 0
 1607 0002 364C     		ldr	r4, .L155
ARM GAS  C:\Users\kotaro\AppData\Local\Temp\ccVB0Tf6.s 			page 42


 1608 0004 636A     		ldr	r3, [r4, #36]
 1609 0006 1BB2     		sxth	r3, r3
 1610              	.LVL120:
 632:Src/tim.c     ****   int16_t r_buff = TIM4->CNT;
 1611              		.loc 1 632 0
 1612 0008 3549     		ldr	r1, .L155+4
 1613 000a 4A6A     		ldr	r2, [r1, #36]
 1614 000c 12B2     		sxth	r2, r2
 1615              	.LVL121:
 633:Src/tim.c     ****   //float enc_left_omega = 0.0f;
 634:Src/tim.c     ****   //float enc_right_omega = 0.0f;
 635:Src/tim.c     ****   TIM3->CNT = 0;
 1616              		.loc 1 635 0
 1617 000e 0020     		movs	r0, #0
 1618 0010 6062     		str	r0, [r4, #36]
 636:Src/tim.c     ****   TIM4->CNT = 0;
 1619              		.loc 1 636 0
 1620 0012 4862     		str	r0, [r1, #36]
 637:Src/tim.c     **** 
 638:Src/tim.c     ****   if ( l_buff > 32767 ){
 639:Src/tim.c     ****     enc_l.cnt = (int16_t)l_buff;
 640:Src/tim.c     ****   } else {
 641:Src/tim.c     ****     enc_l.cnt = l_buff;
 1621              		.loc 1 641 0
 1622 0014 3348     		ldr	r0, .L155+8
 1623 0016 0360     		str	r3, [r0]
 642:Src/tim.c     ****   }
 643:Src/tim.c     **** 
 644:Src/tim.c     ****   if ( r_buff > 32767 ){
 645:Src/tim.c     ****     enc_r.cnt = -1 * (int16_t)r_buff;
 646:Src/tim.c     ****   } else {
 647:Src/tim.c     ****     enc_r.cnt = -1 * r_buff;
 1624              		.loc 1 647 0
 1625 0018 5242     		negs	r2, r2
 1626              	.LVL122:
 1627 001a 3349     		ldr	r1, .L155+12
 1628 001c 0A60     		str	r2, [r1]
 648:Src/tim.c     ****   }
 649:Src/tim.c     ****   
 650:Src/tim.c     ****   enc_l.velocity = (float)enc_l.cnt / ENC_CUL_ROT /GEAR_RATE* 2 * PI * TIRE_RADIUS / dt;
 1629              		.loc 1 650 0
 1630 001e 07EE903A 		vmov	s15, r3	@ int
 1631 0022 F8EEE75A 		vcvt.f32.s32	s11, s15
 1632 0026 9FED315A 		vldr.32	s10, .L155+16
 1633 002a 65EE855A 		vmul.f32	s11, s11, s10
 1634 002e B1EE053A 		vmov.f32	s6, #5.25e+0
 1635 0032 C5EE836A 		vdiv.f32	s13, s11, s6
 1636 0036 76EEA66A 		vadd.f32	s13, s13, s13
 1637 003a DFED2D3A 		vldr.32	s7, .L155+20
 1638 003e 66EEA36A 		vmul.f32	s13, s13, s7
 1639 0042 9FED2C4A 		vldr.32	s8, .L155+24
 1640 0046 66EE846A 		vmul.f32	s13, s13, s8
 1641 004a DFED2B4A 		vldr.32	s9, .L155+28
 1642 004e C6EEA47A 		vdiv.f32	s15, s13, s9
 1643 0052 C0ED017A 		vstr.32	s15, [r0, #4]
 651:Src/tim.c     ****   enc_r.velocity = (float)enc_r.cnt / ENC_CUL_ROT /GEAR_RATE * 2 * PI * TIRE_RADIUS / dt;
 1644              		.loc 1 651 0
ARM GAS  C:\Users\kotaro\AppData\Local\Temp\ccVB0Tf6.s 			page 43


 1645 0056 07EE902A 		vmov	s15, r2	@ int
 1646 005a B8EEE76A 		vcvt.f32.s32	s12, s15
 1647 005e 26EE056A 		vmul.f32	s12, s12, s10
 1648 0062 86EE037A 		vdiv.f32	s14, s12, s6
 1649 0066 37EE077A 		vadd.f32	s14, s14, s14
 1650 006a 27EE237A 		vmul.f32	s14, s14, s7
 1651 006e 27EE047A 		vmul.f32	s14, s14, s8
 1652 0072 C7EE247A 		vdiv.f32	s15, s14, s9
 1653 0076 C1ED017A 		vstr.32	s15, [r1, #4]
 652:Src/tim.c     ****   enc_c.velocity = (float)(enc_l.cnt + enc_r.cnt) / ENC_CUL_ROT / GEAR_RATE * PI * TIRE_RADIUS / dt
 1654              		.loc 1 652 0
 1655 007a 1344     		add	r3, r3, r2
 1656              	.LVL123:
 1657 007c 07EE903A 		vmov	s15, r3	@ int
 1658 0080 F8EEE77A 		vcvt.f32.s32	s15, s15
 1659 0084 67EE857A 		vmul.f32	s15, s15, s10
 1660 0088 87EE835A 		vdiv.f32	s10, s15, s6
 1661 008c 65EE237A 		vmul.f32	s15, s10, s7
 1662 0090 67EE847A 		vmul.f32	s15, s15, s8
 1663 0094 87EEA45A 		vdiv.f32	s10, s15, s9
 1664 0098 184B     		ldr	r3, .L155+32
 1665 009a 83ED015A 		vstr.32	s10, [r3, #4]
 653:Src/tim.c     ****   enc_l.distance += (float)enc_l.cnt / ENC_CUL_ROT /GEAR_RATE * 2 * PI * TIRE_RADIUS;
 1666              		.loc 1 653 0
 1667 009e D0ED027A 		vldr.32	s15, [r0, #8]
 1668 00a2 77EEA66A 		vadd.f32	s13, s15, s13
 1669 00a6 C0ED026A 		vstr.32	s13, [r0, #8]
 654:Src/tim.c     ****   enc_r.distance += (float)enc_r.cnt / ENC_CUL_ROT /GEAR_RATE * 2 * PI * TIRE_RADIUS;
 1670              		.loc 1 654 0
 1671 00aa D1ED027A 		vldr.32	s15, [r1, #8]
 1672 00ae 37EE877A 		vadd.f32	s14, s15, s14
 1673 00b2 81ED027A 		vstr.32	s14, [r1, #8]
 655:Src/tim.c     ****   enc_l.rpm = (float)enc_l.cnt / ENC_CUL_ROT * 1000.0f * 60.0f; 
 1674              		.loc 1 655 0
 1675 00b6 9FED127A 		vldr.32	s14, .L155+36
 1676 00ba 65EE875A 		vmul.f32	s11, s11, s14
 1677 00be DFED117A 		vldr.32	s15, .L155+40
 1678 00c2 65EEA75A 		vmul.f32	s11, s11, s15
 1679 00c6 C0ED035A 		vstr.32	s11, [r0, #12]
 656:Src/tim.c     ****   enc_r.rpm = (float)enc_r.cnt / ENC_CUL_ROT * 1000.0f * 60.0f; 
 1680              		.loc 1 656 0
 1681 00ca 26EE076A 		vmul.f32	s12, s12, s14
 1682 00ce 26EE276A 		vmul.f32	s12, s12, s15
 1683 00d2 81ED036A 		vstr.32	s12, [r1, #12]
 657:Src/tim.c     ****   
 658:Src/tim.c     **** }
 1684              		.loc 1 658 0
 1685 00d6 5DF8044B 		ldr	r4, [sp], #4
 1686              	.LCFI39:
 1687              		.cfi_restore 4
 1688              		.cfi_def_cfa_offset 0
 1689 00da 7047     		bx	lr
 1690              	.L156:
 1691              		.align	2
 1692              	.L155:
 1693 00dc 00040040 		.word	1073742848
 1694 00e0 00080040 		.word	1073743872
ARM GAS  C:\Users\kotaro\AppData\Local\Temp\ccVB0Tf6.s 			page 44


 1695 00e4 00000000 		.word	enc_l
 1696 00e8 00000000 		.word	enc_r
 1697 00ec 0000803A 		.word	981467136
 1698 00f0 DB0F4940 		.word	1078530011
 1699 00f4 CDCC4441 		.word	1095027917
 1700 00f8 6F12833A 		.word	981668463
 1701 00fc 00000000 		.word	enc_c
 1702 0100 00007A44 		.word	1148846080
 1703 0104 00007042 		.word	1114636288
 1704              		.cfi_endproc
 1705              	.LFE173:
 1707              		.comm	htim5,60,4
 1708              		.comm	htim4,60,4
 1709              		.comm	htim3,60,4
 1710              		.comm	htim2,60,4
 1711              		.comm	htim1,60,4
 1712              		.comm	sConfigOC,28,4
 1713              		.comm	sMasterConfig,8,4
 1714              		.section	.rodata.MX_TIM3_Init.str1.4,"aMS",%progbits,1
 1715              		.align	2
 1716              	.LC0:
 1717 0000 5372632F 		.ascii	"Src/tim.c\000"
 1717      74696D2E 
 1717      6300
 1718              		.text
 1719              	.Letext0:
 1720              		.file 2 "c:\\program files (x86)\\gnu tools arm embedded\\7 2017-q4-major\\arm-none-eabi\\include\
 1721              		.file 3 "c:\\program files (x86)\\gnu tools arm embedded\\7 2017-q4-major\\arm-none-eabi\\include\
 1722              		.file 4 "Drivers/CMSIS/Include/core_cm4.h"
 1723              		.file 5 "Drivers/CMSIS/Device/ST/STM32F4xx/Include/system_stm32f4xx.h"
 1724              		.file 6 "Drivers/CMSIS/Device/ST/STM32F4xx/Include/stm32f405xx.h"
 1725              		.file 7 "c:\\program files (x86)\\gnu tools arm embedded\\7 2017-q4-major\\arm-none-eabi\\include\
 1726              		.file 8 "c:\\program files (x86)\\gnu tools arm embedded\\7 2017-q4-major\\arm-none-eabi\\include\
 1727              		.file 9 "c:\\program files (x86)\\gnu tools arm embedded\\7 2017-q4-major\\lib\\gcc\\arm-none-eabi
 1728              		.file 10 "c:\\program files (x86)\\gnu tools arm embedded\\7 2017-q4-major\\arm-none-eabi\\include
 1729              		.file 11 "Drivers/STM32F4xx_HAL_Driver/Inc/stm32f4xx_hal_def.h"
 1730              		.file 12 "Drivers/STM32F4xx_HAL_Driver/Inc/stm32f4xx_hal_gpio.h"
 1731              		.file 13 "Drivers/STM32F4xx_HAL_Driver/Inc/stm32f4xx_hal_dma.h"
 1732              		.file 14 "Drivers/STM32F4xx_HAL_Driver/Inc/stm32f4xx_hal_tim.h"
 1733              		.file 15 "Drivers/STM32F4xx_HAL_Driver/Inc/stm32f4xx_hal_tim_ex.h"
 1734              		.file 16 "Inc/tim.h"
 1735              		.file 17 "Inc/global.h"
 1736              		.file 18 "c:\\program files (x86)\\gnu tools arm embedded\\7 2017-q4-major\\arm-none-eabi\\include
 1737              		.file 19 "Drivers/STM32F4xx_HAL_Driver/Inc/stm32f4xx_hal_cortex.h"
ARM GAS  C:\Users\kotaro\AppData\Local\Temp\ccVB0Tf6.s 			page 45

